---
triple:          'arm64-apple-darwin'
binary-path:     DEBUG
relocations:
  - { offsetInCU: 0x5199, offset: 0x5199, size: 0x8, addend: 0x0, symName: __ZNSt3__124__put_character_sequenceB7v160006IcNS_11char_traitsIcEEEERNS_13basic_ostreamIT_T0_EES7_PKS4_m, symObjAddr: 0x3444, symBinAddr: 0x100003A84, symSize: 0x1EC }
  - { offsetInCU: 0x5FF6, offset: 0x5FF6, size: 0x8, addend: 0x0, symName: __ZNSt3__1lsB7v160006IcNS_11char_traitsIcEEEERNS_13basic_ostreamIT_T0_EES7_RKNS_9__iom_t10IS4_EE, symObjAddr: 0x318, symBinAddr: 0x100000958, symSize: 0x200 }
  - { offsetInCU: 0x784E, offset: 0x784E, size: 0x8, addend: 0x0, symName: __ZNSt3__1lsB7v160006INS_11char_traitsIcEEEERNS_13basic_ostreamIcT_EES6_PKc, symObjAddr: 0x60, symBinAddr: 0x1000006A0, symSize: 0x48 }
  - { offsetInCU: 0x7894, offset: 0x7894, size: 0x8, addend: 0x0, symName: __ZNSt3__14endlB7v160006IcNS_11char_traitsIcEEEERNS_13basic_ostreamIT_T0_EES7_, symObjAddr: 0xD4, symBinAddr: 0x100000714, symSize: 0x58 }
  - { offsetInCU: 0x7CC4, offset: 0x7CC4, size: 0x8, addend: 0x0, symName: __ZNSt3__18put_timeB7v160006IcEENS_9__iom_t10IT_EEPK2tmPKS2_, symObjAddr: 0x518, symBinAddr: 0x100000B58, symSize: 0x38 }
  - { offsetInCU: 0x7D15, offset: 0x7D15, size: 0x8, addend: 0x0, symName: __ZNSt3__17getlineB7v160006IcNS_11char_traitsIcEENS_9allocatorIcEEEERNS_13basic_istreamIT_T0_EES9_RNS_12basic_stringIS6_S7_T1_EE, symObjAddr: 0xEFC, symBinAddr: 0x10000153C, symSize: 0x5C }
  - { offsetInCU: 0x7F8A, offset: 0x7F8A, size: 0x8, addend: 0x0, symName: __ZNSt3__1lsB7v160006IcNS_11char_traitsIcEENS_9allocatorIcEEEERNS_13basic_ostreamIT_T0_EES9_RKNS_12basic_stringIS6_S7_T1_EE, symObjAddr: 0x18E0, symBinAddr: 0x100001F20, symSize: 0x4C }
  - { offsetInCU: 0x7FE2, offset: 0x7FE2, size: 0x8, addend: 0x0, symName: __ZNSt3__119__debug_db_insert_cB7v160006INS_12basic_stringIcNS_11char_traitsIcEENS_9allocatorIcEEEEEEvPT_, symObjAddr: 0x1D14, symBinAddr: 0x100002354, symSize: 0x10 }
  - { offsetInCU: 0x8013, offset: 0x8013, size: 0x8, addend: 0x0, symName: __ZNSt3__122__make_exception_guardB7v160006INS_6vectorI4TaskNS_9allocatorIS2_EEE16__destroy_vectorEEENS_28__exception_guard_exceptionsIT_EES8_, symObjAddr: 0x1FE0, symBinAddr: 0x100002620, symSize: 0x40 }
  - { offsetInCU: 0x8048, offset: 0x8048, size: 0x8, addend: 0x0, symName: __ZNSt3__119__debug_db_insert_cB7v160006INS_6vectorI4TaskNS_9allocatorIS2_EEEEEEvPT_, symObjAddr: 0x2054, symBinAddr: 0x100002694, symSize: 0x10 }
  - { offsetInCU: 0x8079, offset: 0x8079, size: 0x8, addend: 0x0, symName: __ZNSt3__119__allocate_at_leastB7v160006INS_9allocatorI4TaskEEEENS_19__allocation_resultINS_16allocator_traitsIT_E7pointerEEERS6_m, symObjAddr: 0x2390, symBinAddr: 0x1000029D0, symSize: 0x40 }
  - { offsetInCU: 0x80BC, offset: 0x80BC, size: 0x8, addend: 0x0, symName: __ZNSt3__13minB7v160006ImEERKT_S3_S3_, symObjAddr: 0x24E8, symBinAddr: 0x100002B28, symSize: 0x2C }
  - { offsetInCU: 0x80FF, offset: 0x80FF, size: 0x8, addend: 0x0, symName: __ZNSt3__13minB7v160006ImNS_6__lessImmEEEERKT_S5_S5_T0_, symObjAddr: 0x2538, symBinAddr: 0x100002B78, symSize: 0x54 }
  - { offsetInCU: 0x8194, offset: 0x8194, size: 0x8, addend: 0x0, symName: __ZNSt3__120__throw_length_errorB7v160006EPKc, symObjAddr: 0x25E0, symBinAddr: 0x100002C20, symSize: 0x64 }
  - { offsetInCU: 0x81BC, offset: 0x81BC, size: 0x8, addend: 0x0, symName: __ZNSt3__117__libcpp_allocateB7v160006Emm, symObjAddr: 0x2754, symBinAddr: 0x100002D94, symSize: 0x28 }
  - { offsetInCU: 0x81F9, offset: 0x81F9, size: 0x8, addend: 0x0, symName: __ZNSt3__121__libcpp_operator_newB7v160006IJmEEEPvDpT_, symObjAddr: 0x277C, symBinAddr: 0x100002DBC, symSize: 0x24 }
  - { offsetInCU: 0x8232, offset: 0x8232, size: 0x8, addend: 0x0, symName: __ZNSt3__112__to_addressB7v160006I4TaskEEPT_S3_, symObjAddr: 0x2898, symBinAddr: 0x100002ED8, symSize: 0x14 }
  - { offsetInCU: 0x8267, offset: 0x8267, size: 0x8, addend: 0x0, symName: __ZNSt3__130__uninitialized_allocator_copyB7v160006INS_9allocatorI4TaskEEPS2_S4_S4_EET2_RT_T0_T1_S5_, symObjAddr: 0x2948, symBinAddr: 0x100002F88, symSize: 0xF4 }
  - { offsetInCU: 0x8305, offset: 0x8305, size: 0x8, addend: 0x0, symName: __ZNSt3__122__make_exception_guardB7v160006INS_29_AllocatorDestroyRangeReverseINS_9allocatorI4TaskEEPS3_EEEENS_28__exception_guard_exceptionsIT_EES8_, symObjAddr: 0x2AB4, symBinAddr: 0x1000030F4, symSize: 0x4C }
  - { offsetInCU: 0x833B, offset: 0x833B, size: 0x8, addend: 0x0, symName: __ZNSt3__119__allocator_destroyB7v160006INS_9allocatorI4TaskEENS_16reverse_iteratorIPS2_EES6_EEvRT_T0_T1_, symObjAddr: 0x2E20, symBinAddr: 0x100003460, symSize: 0x70 }
  - { offsetInCU: 0x839E, offset: 0x839E, size: 0x8, addend: 0x0, symName: __ZNSt3__1neB7v160006IP4TaskS2_EEbRKNS_16reverse_iteratorIT_EERKNS3_IT0_EE, symObjAddr: 0x2EC4, symBinAddr: 0x100003504, symSize: 0x48 }
  - { offsetInCU: 0x83EA, offset: 0x83EA, size: 0x8, addend: 0x0, symName: __ZNSt3__112__to_addressB7v160006INS_16reverse_iteratorIP4TaskEEvEENS_5decayIDTclsr19__to_address_helperIT_EE6__callclsr3stdE7declvalIRKS6_EEEEE4typeES8_, symObjAddr: 0x2F38, symBinAddr: 0x100003578, symSize: 0x24 }
  - { offsetInCU: 0x8449, offset: 0x8449, size: 0x8, addend: 0x0, symName: __ZNSt3__118__debug_db_erase_cB7v160006INS_6vectorI4TaskNS_9allocatorIS2_EEEEEEvPT_, symObjAddr: 0x3248, symBinAddr: 0x100003888, symSize: 0x10 }
  - { offsetInCU: 0x847A, offset: 0x847A, size: 0x8, addend: 0x0, symName: __ZNSt3__119__libcpp_deallocateB7v160006EPvmm, symObjAddr: 0x3384, symBinAddr: 0x1000039C4, symSize: 0x30 }
  - { offsetInCU: 0x84C2, offset: 0x84C2, size: 0x8, addend: 0x0, symName: __ZNSt3__127__do_deallocate_handle_sizeB7v160006IJEEEvPvmDpT_, symObjAddr: 0x33B4, symBinAddr: 0x1000039F4, symSize: 0x28 }
  - { offsetInCU: 0x8500, offset: 0x8500, size: 0x8, addend: 0x0, symName: __ZNSt3__124__libcpp_operator_deleteB7v160006IJPvEEEvDpT_, symObjAddr: 0x33DC, symBinAddr: 0x100003A1C, symSize: 0x24 }
  - { offsetInCU: 0x8535, offset: 0x8535, size: 0x8, addend: 0x0, symName: __ZNSt3__116__pad_and_outputB7v160006IcNS_11char_traitsIcEEEENS_19ostreambuf_iteratorIT_T0_EES6_PKS4_S8_S8_RNS_8ios_baseES4_, symObjAddr: 0x3680, symBinAddr: 0x100003CC0, symSize: 0x240 }
  - { offsetInCU: 0x8604, offset: 0x8604, size: 0x8, addend: 0x0, symName: __ZNSt3__112__to_addressB7v160006IKcEEPT_S3_, symObjAddr: 0x3AF8, symBinAddr: 0x100004138, symSize: 0x14 }
  - { offsetInCU: 0x866C, offset: 0x866C, size: 0x8, addend: 0x0, symName: __ZNSt3__19use_facetB7v160006INS_5ctypeIcEEEERKT_RKNS_6localeE, symObjAddr: 0x3D78, symBinAddr: 0x1000043B8, symSize: 0x2C }
  - { offsetInCU: 0x8B3B, offset: 0x8B3B, size: 0x8, addend: 0x0, symName: __ZNSt3__118__constexpr_strlenB7v160006EPKc, symObjAddr: 0x3E10, symBinAddr: 0x100004450, symSize: 0x24 }
  - { offsetInCU: 0x8BAE, offset: 0x8BAE, size: 0x8, addend: 0x0, symName: __ZNSt3__19use_facetB7v160006INS_8time_putIcNS_19ostreambuf_iteratorIcNS_11char_traitsIcEEEEEEEERKT_RKNS_6localeE, symObjAddr: 0x4120, symBinAddr: 0x100004760, symSize: 0x2C }
  - { offsetInCU: 0x8BE5, offset: 0x8BE5, size: 0x8, addend: 0x0, symName: __ZNSt3__17getlineB7v160006IcNS_11char_traitsIcEENS_9allocatorIcEEEERNS_13basic_istreamIT_T0_EES9_RNS_12basic_stringIS6_S7_T1_EES6_, symObjAddr: 0x414C, symBinAddr: 0x10000478C, symSize: 0x238 }
  - { offsetInCU: 0x8CA3, offset: 0x8CA3, size: 0x8, addend: 0x0, symName: __ZNSt3__125__debug_db_invalidate_allB7v160006INS_12basic_stringIcNS_11char_traitsIcEENS_9allocatorIcEEEEEEvPT_, symObjAddr: 0x4668, symBinAddr: 0x100004CA8, symSize: 0x10 }
  - { offsetInCU: 0x8F09, offset: 0x8F09, size: 0x8, addend: 0x0, symName: __ZNSt3__13maxB7v160006ImEERKT_S3_S3_, symObjAddr: 0x4D44, symBinAddr: 0x100005384, symSize: 0x2C }
  - { offsetInCU: 0x8F4C, offset: 0x8F4C, size: 0x8, addend: 0x0, symName: __ZNSt3__13maxB7v160006ImNS_6__lessImmEEEERKT_S5_S5_T0_, symObjAddr: 0x4D70, symBinAddr: 0x1000053B0, symSize: 0x54 }
  - { offsetInCU: 0x8FA6, offset: 0x8FA6, size: 0x8, addend: 0x0, symName: __ZNSt3__142__uninitialized_allocator_move_if_noexceptB7v160006INS_9allocatorI4TaskEENS_16reverse_iteratorIPS2_EES6_S6_EET2_RT_T0_T1_S7_, symObjAddr: 0x4FFC, symBinAddr: 0x10000563C, symSize: 0x11C }
  - { offsetInCU: 0x9046, offset: 0x9046, size: 0x8, addend: 0x0, symName: __ZNSt3__14swapB7v160006IP4TaskEENS_9enable_ifIXaasr21is_move_constructibleIT_EE5valuesr18is_move_assignableIS4_EE5valueEvE4typeERS4_S7_, symObjAddr: 0x5118, symBinAddr: 0x100005758, symSize: 0x3C }
  - { offsetInCU: 0x9097, offset: 0x9097, size: 0x8, addend: 0x0, symName: __ZNSt3__125__debug_db_invalidate_allB7v160006INS_6vectorI4TaskNS_9allocatorIS2_EEEEEEvPT_, symObjAddr: 0x5154, symBinAddr: 0x100005794, symSize: 0x10 }
  - { offsetInCU: 0x90C8, offset: 0x90C8, size: 0x8, addend: 0x0, symName: __ZNSt3__122__make_exception_guardB7v160006INS_29_AllocatorDestroyRangeReverseINS_9allocatorI4TaskEENS_16reverse_iteratorIPS3_EEEEEENS_28__exception_guard_exceptionsIT_EESA_, symObjAddr: 0x5164, symBinAddr: 0x1000057A4, symSize: 0x4C }
  - { offsetInCU: 0x90FE, offset: 0x90FE, size: 0x8, addend: 0x0, symName: __ZNSt3__115__debug_db_swapB7v160006INS_12basic_stringIcNS_11char_traitsIcEENS_9allocatorIcEEEEEEvPT_S8_, symObjAddr: 0x54B4, symBinAddr: 0x100005AF4, symSize: 0x14 }
  - { offsetInCU: 0x913D, offset: 0x913D, size: 0x8, addend: 0x0, symName: __ZNSt3__115__debug_db_swapB7v160006INS_6vectorI4TaskNS_9allocatorIS2_EEEEEEvPT_S7_, symObjAddr: 0x55A4, symBinAddr: 0x100005BE4, symSize: 0x14 }
  - { offsetInCU: 0x917C, offset: 0x917C, size: 0x8, addend: 0x0, symName: __ZNSt3__119__allocator_destroyB7v160006INS_9allocatorI4TaskEENS_16reverse_iteratorINS4_IPS2_EEEES7_EEvRT_T0_T1_, symObjAddr: 0x56BC, symBinAddr: 0x100005CFC, symSize: 0x70 }
  - { offsetInCU: 0x91E1, offset: 0x91E1, size: 0x8, addend: 0x0, symName: __ZNSt3__1neB7v160006INS_16reverse_iteratorIP4TaskEES4_EEbRKNS1_IT_EERKNS1_IT0_EE, symObjAddr: 0x5768, symBinAddr: 0x100005DA8, symSize: 0x60 }
  - { offsetInCU: 0x922D, offset: 0x922D, size: 0x8, addend: 0x0, symName: __ZNSt3__112__to_addressB7v160006INS_16reverse_iteratorINS1_IP4TaskEEEEvEENS_5decayIDTclsr19__to_address_helperIT_EE6__callclsr3stdE7declvalIRKS7_EEEEE4typeES9_, symObjAddr: 0x57C8, symBinAddr: 0x100005E08, symSize: 0x24 }
  - { offsetInCU: 0x928C, offset: 0x928C, size: 0x8, addend: 0x0, symName: __ZNSt3__1miB7v160006IPK4TaskS3_EEDTmicldtfp_4baseEcldtfp0_4baseEERKNS_11__wrap_iterIT_EERKNS5_IT0_EE, symObjAddr: 0x5BCC, symBinAddr: 0x10000620C, symSize: 0x48 }
  - { offsetInCU: 0x92D8, offset: 0x92D8, size: 0x8, addend: 0x0, symName: __ZNSt3__14moveB7v160006IP4TaskS2_EET0_T_S4_S3_, symObjAddr: 0x5CA0, symBinAddr: 0x1000062E0, symSize: 0x40 }
  - { offsetInCU: 0x9332, offset: 0x9332, size: 0x8, addend: 0x0, symName: __ZNSt3__16__moveB7v160006INS_17_ClassicAlgPolicyEP4TaskS3_S3_EENS_4pairIT0_T2_EES5_T1_S6_, symObjAddr: 0x5EA0, symBinAddr: 0x1000064E0, symSize: 0x44 }
  - { offsetInCU: 0x939E, offset: 0x939E, size: 0x8, addend: 0x0, symName: __ZNSt3__123__dispatch_copy_or_moveB7v160006INS_17_ClassicAlgPolicyENS_11__move_loopIS1_EENS_14__move_trivialEP4TaskS6_S6_EENS_4pairIT2_T4_EES8_T3_S9_, symObjAddr: 0x5EE4, symBinAddr: 0x100006524, symSize: 0x44 }
  - { offsetInCU: 0x941C, offset: 0x941C, size: 0x8, addend: 0x0, symName: __ZNSt3__121__unwrap_and_dispatchB7v160006INS_10__overloadINS_11__move_loopINS_17_ClassicAlgPolicyEEENS_14__move_trivialEEEP4TaskS8_S8_Li0EEENS_4pairIT0_T2_EESA_T1_SB_, symObjAddr: 0x5F28, symBinAddr: 0x100006568, symSize: 0xB4 }
  - { offsetInCU: 0x94AA, offset: 0x94AA, size: 0x8, addend: 0x0, symName: __ZNSt3__114__unwrap_rangeB7v160006IP4TaskS2_EENS_4pairIT0_S4_EET_S6_, symObjAddr: 0x5FDC, symBinAddr: 0x10000661C, symSize: 0x60 }
  - { offsetInCU: 0x9625, offset: 0x9625, size: 0x8, addend: 0x0, symName: __ZNSt3__113__unwrap_iterB7v160006IP4TaskNS_18__unwrap_iter_implIS2_Lb1EEELi0EEEDTclsrT0_8__unwrapclsr3stdE7declvalIT_EEEES6_, symObjAddr: 0x60CC, symBinAddr: 0x10000670C, symSize: 0x24 }
  - { offsetInCU: 0x9669, offset: 0x9669, size: 0x8, addend: 0x0, symName: __ZNSt3__19make_pairB7v160006IP4TaskS2_EENS_4pairINS_18__unwrap_ref_decayIT_E4typeENS4_IT0_E4typeEEEOS5_OS8_, symObjAddr: 0x60F0, symBinAddr: 0x100006730, symSize: 0x38 }
  - { offsetInCU: 0x96B8, offset: 0x96B8, size: 0x8, addend: 0x0, symName: __ZNSt3__114__rewrap_rangeB7v160006IP4TaskS2_EET_S3_T0_, symObjAddr: 0x6128, symBinAddr: 0x100006768, symSize: 0x2C }
  - { offsetInCU: 0x9704, offset: 0x9704, size: 0x8, addend: 0x0, symName: __ZNSt3__113__rewrap_iterB7v160006IP4TaskS2_NS_18__unwrap_iter_implIS2_Lb1EEEEET_S5_T0_, symObjAddr: 0x6154, symBinAddr: 0x100006794, symSize: 0x3C }
  - { offsetInCU: 0xA0BC, offset: 0xA0BC, size: 0x8, addend: 0x0, symName: __ZSt28__throw_bad_array_new_lengthB7v160006v, symObjAddr: 0x2720, symBinAddr: 0x100002D60, symSize: 0x34 }
  - { offsetInCU: 0xA782, offset: 0xA782, size: 0x8, addend: 0x0, symName: __ZNSt3__16vectorI4TaskNS_9allocatorIS1_EEE26__swap_out_circular_bufferERNS_14__split_bufferIS1_RS3_EE, symObjAddr: 0x4C00, symBinAddr: 0x100005240, symSize: 0x118 }
  - { offsetInCU: 0xA8B7, offset: 0xA8B7, size: 0x8, addend: 0x0, symName: __Z7isdigiti, symObjAddr: 0xF7C, symBinAddr: 0x1000015BC, symSize: 0x28 }
  - { offsetInCU: 0xCA9B, offset: 0xCA9B, size: 0x8, addend: 0x0, symName: __Z8commandsv, symObjAddr: 0x0, symBinAddr: 0x100000640, symSize: 0x60 }
  - { offsetInCU: 0xCAB5, offset: 0xCAB5, size: 0x8, addend: 0x0, symName: __ZNSt3__113basic_ostreamIcNS_11char_traitsIcEEElsB7v160006EPFRS3_S4_E, symObjAddr: 0xA8, symBinAddr: 0x1000006E8, symSize: 0x2C }
  - { offsetInCU: 0xCAE7, offset: 0xCAE7, size: 0x8, addend: 0x0, symName: __Z14getCurrentTimev, symObjAddr: 0x12C, symBinAddr: 0x10000076C, symSize: 0xE8 }
  - { offsetInCU: 0xCB90, offset: 0xCB90, size: 0x8, addend: 0x0, symName: __ZNSt3__118basic_stringstreamIcNS_11char_traitsIcEENS_9allocatorIcEEEC1B7v160006Ev, symObjAddr: 0x214, symBinAddr: 0x100000854, symSize: 0x104 }
  - { offsetInCU: 0xCBB9, offset: 0xCBB9, size: 0x8, addend: 0x0, symName: __ZNKSt3__118basic_stringstreamIcNS_11char_traitsIcEENS_9allocatorIcEEE3strB7v160006Ev, symObjAddr: 0x550, symBinAddr: 0x100000B90, symSize: 0x30 }
  - { offsetInCU: 0xCBE3, offset: 0xCBE3, size: 0x8, addend: 0x0, symName: __ZNSt3__118basic_stringstreamIcNS_11char_traitsIcEENS_9allocatorIcEEED1Ev, symObjAddr: 0x580, symBinAddr: 0x100000BC0, symSize: 0x40 }
  - { offsetInCU: 0xCC0F, offset: 0xCC0F, size: 0x8, addend: 0x0, symName: __Z11displayMenuRNSt3__16vectorI4TaskNS_9allocatorIS1_EEEES5_S5_, symObjAddr: 0x5C0, symBinAddr: 0x100000C00, symSize: 0x82C }
  - { offsetInCU: 0xCCC2, offset: 0xCCC2, size: 0x8, addend: 0x0, symName: __Z9printListRNSt3__16vectorI4TaskNS_9allocatorIS1_EEEE, symObjAddr: 0xE00, symBinAddr: 0x100001440, symSize: 0xD0 }
  - { offsetInCU: 0xCD08, offset: 0xCD08, size: 0x8, addend: 0x0, symName: __ZNSt3__112basic_stringIcNS_11char_traitsIcEENS_9allocatorIcEEEC1B7v160006Ev, symObjAddr: 0xED0, symBinAddr: 0x100001510, symSize: 0x2C }
  - { offsetInCU: 0xCD31, offset: 0xCD31, size: 0x8, addend: 0x0, symName: __ZNKSt3__112basic_stringIcNS_11char_traitsIcEENS_9allocatorIcEEE6lengthB7v160006Ev, symObjAddr: 0xF58, symBinAddr: 0x100001598, symSize: 0x24 }
  - { offsetInCU: 0xCD56, offset: 0xCD56, size: 0x8, addend: 0x0, symName: __ZNSt3__112basic_stringIcNS_11char_traitsIcEENS_9allocatorIcEEEixB7v160006Em, symObjAddr: 0xFA4, symBinAddr: 0x1000015E4, symSize: 0x30 }
  - { offsetInCU: 0xCD8A, offset: 0xCD8A, size: 0x8, addend: 0x0, symName: __Z8addTasksRNSt3__16vectorI4TaskNS_9allocatorIS1_EEEE, symObjAddr: 0xFD4, symBinAddr: 0x100001614, symSize: 0x528 }
  - { offsetInCU: 0xCE30, offset: 0xCE30, size: 0x8, addend: 0x0, symName: __ZNSt3__114numeric_limitsIlE3maxB7v160006Ev, symObjAddr: 0x14FC, symBinAddr: 0x100001B3C, symSize: 0x14 }
  - { offsetInCU: 0xCE44, offset: 0xCE44, size: 0x8, addend: 0x0, symName: __ZNKSt3__16vectorI4TaskNS_9allocatorIS1_EEE4sizeB7v160006Ev, symObjAddr: 0x1510, symBinAddr: 0x100001B50, symSize: 0x28 }
  - { offsetInCU: 0xCE69, offset: 0xCE69, size: 0x8, addend: 0x0, symName: __ZNSt3__16vectorI4TaskNS_9allocatorIS1_EEE9push_backB7v160006ERKS1_, symObjAddr: 0x1538, symBinAddr: 0x100001B78, symSize: 0x6C }
  - { offsetInCU: 0xCE9E, offset: 0xCE9E, size: 0x8, addend: 0x0, symName: __ZNSt3__16vectorI4TaskNS_9allocatorIS1_EEEixB7v160006Em, symObjAddr: 0x15A4, symBinAddr: 0x100001BE4, symSize: 0x2C }
  - { offsetInCU: 0xCED4, offset: 0xCED4, size: 0x8, addend: 0x0, symName: __ZNSt3__16vectorI4TaskNS_9allocatorIS1_EEE5eraseB7v160006ENS_11__wrap_iterIPKS1_EE, symObjAddr: 0x15D0, symBinAddr: 0x100001C10, symSize: 0xAC }
  - { offsetInCU: 0xCF27, offset: 0xCF27, size: 0x8, addend: 0x0, symName: __ZNSt3__16vectorI4TaskNS_9allocatorIS1_EEE5beginB7v160006Ev, symObjAddr: 0x167C, symBinAddr: 0x100001CBC, symSize: 0x30 }
  - { offsetInCU: 0xCF4D, offset: 0xCF4D, size: 0x8, addend: 0x0, symName: __ZNKSt3__111__wrap_iterIP4TaskEplB7v160006El, symObjAddr: 0x16AC, symBinAddr: 0x100001CEC, symSize: 0x3C }
  - { offsetInCU: 0xCF98, offset: 0xCF98, size: 0x8, addend: 0x0, symName: __ZNSt3__111__wrap_iterIPK4TaskEC1B7v160006IPS1_EERKNS0_IT_EEPNS_9enable_ifIXsr14is_convertibleIS7_S3_EE5valueEvE4typeE, symObjAddr: 0x16E8, symBinAddr: 0x100001D28, symSize: 0x3C }
  - { offsetInCU: 0xCFE3, offset: 0xCFE3, size: 0x8, addend: 0x0, symName: __ZNSt3__16vectorI4TaskNS_9allocatorIS1_EEEC1B7v160006Ev, symObjAddr: 0x1724, symBinAddr: 0x100001D64, symSize: 0x2C }
  - { offsetInCU: 0xD00C, offset: 0xD00C, size: 0x8, addend: 0x0, symName: __ZNSt3__16vectorI4TaskNS_9allocatorIS1_EEE9push_backB7v160006EOS1_, symObjAddr: 0x1750, symBinAddr: 0x100001D90, symSize: 0x6C }
  - { offsetInCU: 0xD041, offset: 0xD041, size: 0x8, addend: 0x0, symName: __ZN4TaskC1ENSt3__112basic_stringIcNS0_11char_traitsIcEENS0_9allocatorIcEEEES6_NS0_6vectorIS_NS4_IS_EEEE, symObjAddr: 0x17BC, symBinAddr: 0x100001DFC, symSize: 0x44 }
  - { offsetInCU: 0xD097, offset: 0xD097, size: 0x8, addend: 0x0, symName: __ZN4TaskD1Ev, symObjAddr: 0x1800, symBinAddr: 0x100001E40, symSize: 0x2C }
  - { offsetInCU: 0xD0C2, offset: 0xD0C2, size: 0x8, addend: 0x0, symName: __ZNSt3__16vectorI4TaskNS_9allocatorIS1_EEED1B7v160006Ev, symObjAddr: 0x182C, symBinAddr: 0x100001E6C, symSize: 0x2C }
  - { offsetInCU: 0xD0EB, offset: 0xD0EB, size: 0x8, addend: 0x0, symName: __ZNKSt3__16vectorI4TaskNS_9allocatorIS1_EEE5emptyB7v160006Ev, symObjAddr: 0x1858, symBinAddr: 0x100001E98, symSize: 0x28 }
  - { offsetInCU: 0xD110, offset: 0xD110, size: 0x8, addend: 0x0, symName: __ZNSt3__16vectorI4TaskNS_9allocatorIS1_EEE8pop_backEv, symObjAddr: 0x1880, symBinAddr: 0x100001EC0, symSize: 0x2C }
  - { offsetInCU: 0xD136, offset: 0xD136, size: 0x8, addend: 0x0, symName: __ZNSt3__16vectorI4TaskNS_9allocatorIS1_EEEC1ERKS4_, symObjAddr: 0x18AC, symBinAddr: 0x100001EEC, symSize: 0x34 }
  - { offsetInCU: 0xD170, offset: 0xD170, size: 0x8, addend: 0x0, symName: _main, symObjAddr: 0x192C, symBinAddr: 0x100001F6C, symSize: 0xAC }
  - { offsetInCU: 0xD1D2, offset: 0xD1D2, size: 0x8, addend: 0x0, symName: __ZNSt3__118basic_stringstreamIcNS_11char_traitsIcEENS_9allocatorIcEEED2Ev, symObjAddr: 0x19D8, symBinAddr: 0x100002018, symSize: 0x6C }
  - { offsetInCU: 0xD20A, offset: 0xD20A, size: 0x8, addend: 0x0, symName: __ZThn16_NSt3__118basic_stringstreamIcNS_11char_traitsIcEENS_9allocatorIcEEED1Ev, symObjAddr: 0x1A44, symBinAddr: 0x100002084, symSize: 0x1C }
  - { offsetInCU: 0xD221, offset: 0xD221, size: 0x8, addend: 0x0, symName: __ZTv0_n24_NSt3__118basic_stringstreamIcNS_11char_traitsIcEENS_9allocatorIcEEED1Ev, symObjAddr: 0x1A60, symBinAddr: 0x1000020A0, symSize: 0x28 }
  - { offsetInCU: 0xD23D, offset: 0xD23D, size: 0x8, addend: 0x0, symName: __ZNSt3__115basic_stringbufIcNS_11char_traitsIcEENS_9allocatorIcEEED1Ev, symObjAddr: 0x1A88, symBinAddr: 0x1000020C8, symSize: 0x2C }
  - { offsetInCU: 0xD269, offset: 0xD269, size: 0x8, addend: 0x0, symName: __ZNSt3__115basic_stringbufIcNS_11char_traitsIcEENS_9allocatorIcEEED2Ev, symObjAddr: 0x1AB4, symBinAddr: 0x1000020F4, symSize: 0x48 }
  - { offsetInCU: 0xD294, offset: 0xD294, size: 0x8, addend: 0x0, symName: __Z9__isctypeim, symObjAddr: 0x1AFC, symBinAddr: 0x10000213C, symSize: 0x80 }
  - { offsetInCU: 0xD2CF, offset: 0xD2CF, size: 0x8, addend: 0x0, symName: __ZNSt3__123__libcpp_numeric_limitsIlLb1EE3maxB7v160006Ev, symObjAddr: 0x1B7C, symBinAddr: 0x1000021BC, symSize: 0x8 }
  - { offsetInCU: 0xD2E3, offset: 0xD2E3, size: 0x8, addend: 0x0, symName: __ZN4TaskC2ENSt3__112basic_stringIcNS0_11char_traitsIcEENS0_9allocatorIcEEEES6_NS0_6vectorIS_NS4_IS_EEEE, symObjAddr: 0x1B84, symBinAddr: 0x1000021C4, symSize: 0xB0 }
  - { offsetInCU: 0xD339, offset: 0xD339, size: 0x8, addend: 0x0, symName: __ZN4TaskD2Ev, symObjAddr: 0x1C34, symBinAddr: 0x100002274, symSize: 0x44 }
  - { offsetInCU: 0xD364, offset: 0xD364, size: 0x8, addend: 0x0, symName: __ZNSt3__112basic_stringIcNS_11char_traitsIcEENS_9allocatorIcEEEC2B7v160006Ev, symObjAddr: 0x1C78, symBinAddr: 0x1000022B8, symSize: 0x54 }
  - { offsetInCU: 0xD392, offset: 0xD392, size: 0x8, addend: 0x0, symName: __ZNSt3__117__compressed_pairINS_12basic_stringIcNS_11char_traitsIcEENS_9allocatorIcEEE5__repES5_EC1B7v160006INS_18__default_init_tagESA_EEOT_OT0_, symObjAddr: 0x1CCC, symBinAddr: 0x10000230C, symSize: 0x3C }
  - { offsetInCU: 0xD3E9, offset: 0xD3E9, size: 0x8, addend: 0x0, symName: __ZNSt3__112basic_stringIcNS_11char_traitsIcEENS_9allocatorIcEEE14__default_initB7v160006Ev, symObjAddr: 0x1D24, symBinAddr: 0x100002364, symSize: 0x40 }
  - { offsetInCU: 0xD40E, offset: 0xD40E, size: 0x8, addend: 0x0, symName: __ZNSt3__117__compressed_pairINS_12basic_stringIcNS_11char_traitsIcEENS_9allocatorIcEEE5__repES5_EC2B7v160006INS_18__default_init_tagESA_EEOT_OT0_, symObjAddr: 0x1D64, symBinAddr: 0x1000023A4, symSize: 0x3C }
  - { offsetInCU: 0xD465, offset: 0xD465, size: 0x8, addend: 0x0, symName: __ZNSt3__122__compressed_pair_elemINS_12basic_stringIcNS_11char_traitsIcEENS_9allocatorIcEEE5__repELi0ELb0EEC2B7v160006ENS_18__default_init_tagE, symObjAddr: 0x1DA0, symBinAddr: 0x1000023E0, symSize: 0x14 }
  - { offsetInCU: 0xD499, offset: 0xD499, size: 0x8, addend: 0x0, symName: __ZNSt3__122__compressed_pair_elemINS_9allocatorIcEELi1ELb1EEC2B7v160006ENS_18__default_init_tagE, symObjAddr: 0x1DB4, symBinAddr: 0x1000023F4, symSize: 0x2C }
  - { offsetInCU: 0xD4CD, offset: 0xD4CD, size: 0x8, addend: 0x0, symName: __ZNSt3__19allocatorIcEC2B7v160006Ev, symObjAddr: 0x1DE0, symBinAddr: 0x100002420, symSize: 0x2C }
  - { offsetInCU: 0xD4F6, offset: 0xD4F6, size: 0x8, addend: 0x0, symName: __ZNSt3__116__non_trivial_ifILb1ENS_9allocatorIcEEEC2B7v160006Ev, symObjAddr: 0x1E0C, symBinAddr: 0x10000244C, symSize: 0x14 }
  - { offsetInCU: 0xD51F, offset: 0xD51F, size: 0x8, addend: 0x0, symName: __ZNSt3__117__compressed_pairINS_12basic_stringIcNS_11char_traitsIcEENS_9allocatorIcEEE5__repES5_E5firstB7v160006Ev, symObjAddr: 0x1E20, symBinAddr: 0x100002460, symSize: 0x24 }
  - { offsetInCU: 0xD544, offset: 0xD544, size: 0x8, addend: 0x0, symName: __ZNSt3__122__compressed_pair_elemINS_12basic_stringIcNS_11char_traitsIcEENS_9allocatorIcEEE5__repELi0ELb0EE5__getB7v160006Ev, symObjAddr: 0x1E44, symBinAddr: 0x100002484, symSize: 0x14 }
  - { offsetInCU: 0xD569, offset: 0xD569, size: 0x8, addend: 0x0, symName: __ZNSt3__16vectorI4TaskNS_9allocatorIS1_EEEC2ERKS4_, symObjAddr: 0x1E58, symBinAddr: 0x100002498, symSize: 0x114 }
  - { offsetInCU: 0xD5D1, offset: 0xD5D1, size: 0x8, addend: 0x0, symName: __ZNSt3__116allocator_traitsINS_9allocatorI4TaskEEE37select_on_container_copy_constructionB7v160006IS3_vvEES3_RKS3_, symObjAddr: 0x1F6C, symBinAddr: 0x1000025AC, symSize: 0x10 }
  - { offsetInCU: 0xD600, offset: 0xD600, size: 0x8, addend: 0x0, symName: __ZNKSt3__16vectorI4TaskNS_9allocatorIS1_EEE7__allocB7v160006Ev, symObjAddr: 0x1F7C, symBinAddr: 0x1000025BC, symSize: 0x28 }
  - { offsetInCU: 0xD62F, offset: 0xD62F, size: 0x8, addend: 0x0, symName: __ZNSt3__117__compressed_pairIP4TaskNS_9allocatorIS1_EEEC1B7v160006IDnS4_EEOT_OT0_, symObjAddr: 0x1FA4, symBinAddr: 0x1000025E4, symSize: 0x3C }
  - { offsetInCU: 0xD686, offset: 0xD686, size: 0x8, addend: 0x0, symName: __ZNSt3__16vectorI4TaskNS_9allocatorIS1_EEE16__destroy_vectorC1ERS4_, symObjAddr: 0x2020, symBinAddr: 0x100002660, symSize: 0x34 }
  - { offsetInCU: 0xD6BE, offset: 0xD6BE, size: 0x8, addend: 0x0, symName: __ZNSt3__16vectorI4TaskNS_9allocatorIS1_EEE11__vallocateB7v160006Em, symObjAddr: 0x2064, symBinAddr: 0x1000026A4, symSize: 0xB4 }
  - { offsetInCU: 0xD701, offset: 0xD701, size: 0x8, addend: 0x0, symName: __ZNSt3__16vectorI4TaskNS_9allocatorIS1_EEE18__construct_at_endIPS1_Li0EEEvT_S7_m, symObjAddr: 0x2118, symBinAddr: 0x100002758, symSize: 0x8C }
  - { offsetInCU: 0xD772, offset: 0xD772, size: 0x8, addend: 0x0, symName: __ZNSt3__128__exception_guard_exceptionsINS_6vectorI4TaskNS_9allocatorIS2_EEE16__destroy_vectorEE10__completeB7v160006Ev, symObjAddr: 0x21A4, symBinAddr: 0x1000027E4, symSize: 0x1C }
  - { offsetInCU: 0xD797, offset: 0xD797, size: 0x8, addend: 0x0, symName: __ZNSt3__128__exception_guard_exceptionsINS_6vectorI4TaskNS_9allocatorIS2_EEE16__destroy_vectorEED1B7v160006Ev, symObjAddr: 0x21C0, symBinAddr: 0x100002800, symSize: 0x2C }
  - { offsetInCU: 0xD7C0, offset: 0xD7C0, size: 0x8, addend: 0x0, symName: __ZNKSt3__117__compressed_pairIP4TaskNS_9allocatorIS1_EEE6secondB7v160006Ev, symObjAddr: 0x21EC, symBinAddr: 0x10000282C, symSize: 0x24 }
  - { offsetInCU: 0xD7E5, offset: 0xD7E5, size: 0x8, addend: 0x0, symName: __ZNKSt3__122__compressed_pair_elemINS_9allocatorI4TaskEELi1ELb1EE5__getB7v160006Ev, symObjAddr: 0x2210, symBinAddr: 0x100002850, symSize: 0x14 }
  - { offsetInCU: 0xD80A, offset: 0xD80A, size: 0x8, addend: 0x0, symName: __ZNSt3__117__compressed_pairIP4TaskNS_9allocatorIS1_EEEC2B7v160006IDnS4_EEOT_OT0_, symObjAddr: 0x2224, symBinAddr: 0x100002864, symSize: 0x44 }
  - { offsetInCU: 0xD861, offset: 0xD861, size: 0x8, addend: 0x0, symName: __ZNSt3__122__compressed_pair_elemIP4TaskLi0ELb0EEC2B7v160006IDnvEEOT_, symObjAddr: 0x2268, symBinAddr: 0x1000028A8, symSize: 0x1C }
  - { offsetInCU: 0xD8A2, offset: 0xD8A2, size: 0x8, addend: 0x0, symName: __ZNSt3__122__compressed_pair_elemINS_9allocatorI4TaskEELi1ELb1EEC2B7v160006IS3_vEEOT_, symObjAddr: 0x2284, symBinAddr: 0x1000028C4, symSize: 0x18 }
  - { offsetInCU: 0xD8E3, offset: 0xD8E3, size: 0x8, addend: 0x0, symName: __ZNSt3__128__exception_guard_exceptionsINS_6vectorI4TaskNS_9allocatorIS2_EEE16__destroy_vectorEEC1B7v160006ES6_, symObjAddr: 0x229C, symBinAddr: 0x1000028DC, symSize: 0x34 }
  - { offsetInCU: 0xD91A, offset: 0xD91A, size: 0x8, addend: 0x0, symName: __ZNSt3__128__exception_guard_exceptionsINS_6vectorI4TaskNS_9allocatorIS2_EEE16__destroy_vectorEEC2B7v160006ES6_, symObjAddr: 0x22D0, symBinAddr: 0x100002910, symSize: 0x24 }
  - { offsetInCU: 0xD951, offset: 0xD951, size: 0x8, addend: 0x0, symName: __ZNSt3__16vectorI4TaskNS_9allocatorIS1_EEE16__destroy_vectorC2ERS4_, symObjAddr: 0x22F4, symBinAddr: 0x100002934, symSize: 0x20 }
  - { offsetInCU: 0xD989, offset: 0xD989, size: 0x8, addend: 0x0, symName: __ZNKSt3__16vectorI4TaskNS_9allocatorIS1_EEE8max_sizeEv, symObjAddr: 0x2314, symBinAddr: 0x100002954, symSize: 0x60 }
  - { offsetInCU: 0xD9AF, offset: 0xD9AF, size: 0x8, addend: 0x0, symName: __ZNKSt3__16vectorI4TaskNS_9allocatorIS1_EEE20__throw_length_errorB7v160006Ev, symObjAddr: 0x2374, symBinAddr: 0x1000029B4, symSize: 0x1C }
  - { offsetInCU: 0xD9D4, offset: 0xD9D4, size: 0x8, addend: 0x0, symName: __ZNSt3__16vectorI4TaskNS_9allocatorIS1_EEE7__allocB7v160006Ev, symObjAddr: 0x23D0, symBinAddr: 0x100002A10, symSize: 0x28 }
  - { offsetInCU: 0xD9F9, offset: 0xD9F9, size: 0x8, addend: 0x0, symName: __ZNSt3__16vectorI4TaskNS_9allocatorIS1_EEE9__end_capB7v160006Ev, symObjAddr: 0x23F8, symBinAddr: 0x100002A38, symSize: 0x28 }
  - { offsetInCU: 0xDA1E, offset: 0xDA1E, size: 0x8, addend: 0x0, symName: __ZNKSt3__16vectorI4TaskNS_9allocatorIS1_EEE14__annotate_newB7v160006Em, symObjAddr: 0x2420, symBinAddr: 0x100002A60, symSize: 0xC8 }
  - { offsetInCU: 0xDA52, offset: 0xDA52, size: 0x8, addend: 0x0, symName: __ZNSt3__116allocator_traitsINS_9allocatorI4TaskEEE8max_sizeB7v160006IS3_vEEmRKS3_, symObjAddr: 0x2514, symBinAddr: 0x100002B54, symSize: 0x24 }
  - { offsetInCU: 0xDA94, offset: 0xDA94, size: 0x8, addend: 0x0, symName: __ZNKSt3__16__lessImmEclB7v160006ERKmS3_, symObjAddr: 0x258C, symBinAddr: 0x100002BCC, symSize: 0x34 }
  - { offsetInCU: 0xDAD5, offset: 0xDAD5, size: 0x8, addend: 0x0, symName: __ZNKSt3__19allocatorI4TaskE8max_sizeB7v160006Ev, symObjAddr: 0x25C0, symBinAddr: 0x100002C00, symSize: 0x20 }
  - { offsetInCU: 0xDAFA, offset: 0xDAFA, size: 0x8, addend: 0x0, symName: __ZNSt12length_errorC1B7v160006EPKc, symObjAddr: 0x2644, symBinAddr: 0x100002C84, symSize: 0x34 }
  - { offsetInCU: 0xDB31, offset: 0xDB31, size: 0x8, addend: 0x0, symName: __ZNSt12length_errorC2B7v160006EPKc, symObjAddr: 0x2678, symBinAddr: 0x100002CB8, symSize: 0x4C }
  - { offsetInCU: 0xDB68, offset: 0xDB68, size: 0x8, addend: 0x0, symName: __ZNSt3__19allocatorI4TaskE8allocateB7v160006Em, symObjAddr: 0x26C4, symBinAddr: 0x100002D04, symSize: 0x5C }
  - { offsetInCU: 0xDB9B, offset: 0xDB9B, size: 0x8, addend: 0x0, symName: __ZNSt3__117__compressed_pairIP4TaskNS_9allocatorIS1_EEE6secondB7v160006Ev, symObjAddr: 0x27A0, symBinAddr: 0x100002DE0, symSize: 0x24 }
  - { offsetInCU: 0xDBC0, offset: 0xDBC0, size: 0x8, addend: 0x0, symName: __ZNSt3__122__compressed_pair_elemINS_9allocatorI4TaskEELi1ELb1EE5__getB7v160006Ev, symObjAddr: 0x27C4, symBinAddr: 0x100002E04, symSize: 0x14 }
  - { offsetInCU: 0xDBE5, offset: 0xDBE5, size: 0x8, addend: 0x0, symName: __ZNSt3__117__compressed_pairIP4TaskNS_9allocatorIS1_EEE5firstB7v160006Ev, symObjAddr: 0x27D8, symBinAddr: 0x100002E18, symSize: 0x24 }
  - { offsetInCU: 0xDC0A, offset: 0xDC0A, size: 0x8, addend: 0x0, symName: __ZNSt3__122__compressed_pair_elemIP4TaskLi0ELb0EE5__getB7v160006Ev, symObjAddr: 0x27FC, symBinAddr: 0x100002E3C, symSize: 0x14 }
  - { offsetInCU: 0xDC2F, offset: 0xDC2F, size: 0x8, addend: 0x0, symName: __ZNKSt3__16vectorI4TaskNS_9allocatorIS1_EEE31__annotate_contiguous_containerB7v160006EPKvS6_S6_S6_, symObjAddr: 0x2810, symBinAddr: 0x100002E50, symSize: 0x20 }
  - { offsetInCU: 0xDC84, offset: 0xDC84, size: 0x8, addend: 0x0, symName: __ZNKSt3__16vectorI4TaskNS_9allocatorIS1_EEE4dataB7v160006Ev, symObjAddr: 0x2830, symBinAddr: 0x100002E70, symSize: 0x28 }
  - { offsetInCU: 0xDCA9, offset: 0xDCA9, size: 0x8, addend: 0x0, symName: __ZNKSt3__16vectorI4TaskNS_9allocatorIS1_EEE8capacityB7v160006Ev, symObjAddr: 0x2858, symBinAddr: 0x100002E98, symSize: 0x40 }
  - { offsetInCU: 0xDCCE, offset: 0xDCCE, size: 0x8, addend: 0x0, symName: __ZNKSt3__16vectorI4TaskNS_9allocatorIS1_EEE9__end_capB7v160006Ev, symObjAddr: 0x28AC, symBinAddr: 0x100002EEC, symSize: 0x28 }
  - { offsetInCU: 0xDCF3, offset: 0xDCF3, size: 0x8, addend: 0x0, symName: __ZNKSt3__117__compressed_pairIP4TaskNS_9allocatorIS1_EEE5firstB7v160006Ev, symObjAddr: 0x28D4, symBinAddr: 0x100002F14, symSize: 0x24 }
  - { offsetInCU: 0xDD18, offset: 0xDD18, size: 0x8, addend: 0x0, symName: __ZNKSt3__122__compressed_pair_elemIP4TaskLi0ELb0EE5__getB7v160006Ev, symObjAddr: 0x28F8, symBinAddr: 0x100002F38, symSize: 0x14 }
  - { offsetInCU: 0xDD56, offset: 0xDD56, size: 0x8, addend: 0x0, symName: __ZNSt3__16vectorI4TaskNS_9allocatorIS1_EEE21_ConstructTransactionC1B7v160006ERS4_m, symObjAddr: 0x290C, symBinAddr: 0x100002F4C, symSize: 0x3C }
  - { offsetInCU: 0xDD9D, offset: 0xDD9D, size: 0x8, addend: 0x0, symName: __ZNSt3__16vectorI4TaskNS_9allocatorIS1_EEE21_ConstructTransactionD1B7v160006Ev, symObjAddr: 0x2A3C, symBinAddr: 0x10000307C, symSize: 0x2C }
  - { offsetInCU: 0xDDC6, offset: 0xDDC6, size: 0x8, addend: 0x0, symName: __ZNSt3__16vectorI4TaskNS_9allocatorIS1_EEE21_ConstructTransactionC2B7v160006ERS4_m, symObjAddr: 0x2A68, symBinAddr: 0x1000030A8, symSize: 0x4C }
  - { offsetInCU: 0xDE0D, offset: 0xDE0D, size: 0x8, addend: 0x0, symName: __ZNSt3__129_AllocatorDestroyRangeReverseINS_9allocatorI4TaskEEPS2_EC1B7v160006ERS3_RS4_S7_, symObjAddr: 0x2B00, symBinAddr: 0x100003140, symSize: 0x44 }
  - { offsetInCU: 0xDE63, offset: 0xDE63, size: 0x8, addend: 0x0, symName: __ZNSt3__116allocator_traitsINS_9allocatorI4TaskEEE9constructB7v160006IS2_JRS2_EvEEvRS3_PT_DpOT0_, symObjAddr: 0x2B44, symBinAddr: 0x100003184, symSize: 0x34 }
  - { offsetInCU: 0xDEBA, offset: 0xDEBA, size: 0x8, addend: 0x0, symName: __ZNSt3__128__exception_guard_exceptionsINS_29_AllocatorDestroyRangeReverseINS_9allocatorI4TaskEEPS3_EEE10__completeB7v160006Ev, symObjAddr: 0x2B78, symBinAddr: 0x1000031B8, symSize: 0x1C }
  - { offsetInCU: 0xDEDF, offset: 0xDEDF, size: 0x8, addend: 0x0, symName: __ZNSt3__128__exception_guard_exceptionsINS_29_AllocatorDestroyRangeReverseINS_9allocatorI4TaskEEPS3_EEED1B7v160006Ev, symObjAddr: 0x2B94, symBinAddr: 0x1000031D4, symSize: 0x2C }
  - { offsetInCU: 0xDF08, offset: 0xDF08, size: 0x8, addend: 0x0, symName: __ZNSt3__128__exception_guard_exceptionsINS_29_AllocatorDestroyRangeReverseINS_9allocatorI4TaskEEPS3_EEEC1B7v160006ES6_, symObjAddr: 0x2BC0, symBinAddr: 0x100003200, symSize: 0x34 }
  - { offsetInCU: 0xDF40, offset: 0xDF40, size: 0x8, addend: 0x0, symName: __ZNSt3__128__exception_guard_exceptionsINS_29_AllocatorDestroyRangeReverseINS_9allocatorI4TaskEEPS3_EEEC2B7v160006ES6_, symObjAddr: 0x2BF4, symBinAddr: 0x100003234, symSize: 0x30 }
  - { offsetInCU: 0xDF78, offset: 0xDF78, size: 0x8, addend: 0x0, symName: __ZNSt3__129_AllocatorDestroyRangeReverseINS_9allocatorI4TaskEEPS2_EC2B7v160006ERS3_RS4_S7_, symObjAddr: 0x2C24, symBinAddr: 0x100003264, symSize: 0x38 }
  - { offsetInCU: 0xDFCE, offset: 0xDFCE, size: 0x8, addend: 0x0, symName: __ZNSt3__19allocatorI4TaskE9constructB7v160006IS1_JRS1_EEEvPT_DpOT0_, symObjAddr: 0x2C5C, symBinAddr: 0x10000329C, symSize: 0x30 }
  - { offsetInCU: 0xE023, offset: 0xE023, size: 0x8, addend: 0x0, symName: __ZN4TaskC1ERKS_, symObjAddr: 0x2C8C, symBinAddr: 0x1000032CC, symSize: 0x34 }
  - { offsetInCU: 0xE057, offset: 0xE057, size: 0x8, addend: 0x0, symName: __ZN4TaskC2ERKS_, symObjAddr: 0x2CC0, symBinAddr: 0x100003300, symSize: 0xA8 }
  - { offsetInCU: 0xE08B, offset: 0xE08B, size: 0x8, addend: 0x0, symName: __ZNSt3__128__exception_guard_exceptionsINS_29_AllocatorDestroyRangeReverseINS_9allocatorI4TaskEEPS3_EEED2B7v160006Ev, symObjAddr: 0x2D68, symBinAddr: 0x1000033A8, symSize: 0x50 }
  - { offsetInCU: 0xE0B4, offset: 0xE0B4, size: 0x8, addend: 0x0, symName: __ZNKSt3__129_AllocatorDestroyRangeReverseINS_9allocatorI4TaskEEPS2_EclB7v160006Ev, symObjAddr: 0x2DB8, symBinAddr: 0x1000033F8, symSize: 0x68 }
  - { offsetInCU: 0xE0D9, offset: 0xE0D9, size: 0x8, addend: 0x0, symName: __ZNSt3__116reverse_iteratorIP4TaskEC1B7v160006ES2_, symObjAddr: 0x2E90, symBinAddr: 0x1000034D0, symSize: 0x34 }
  - { offsetInCU: 0xE110, offset: 0xE110, size: 0x8, addend: 0x0, symName: __ZNSt3__116allocator_traitsINS_9allocatorI4TaskEEE7destroyB7v160006IS2_vEEvRS3_PT_, symObjAddr: 0x2F0C, symBinAddr: 0x10000354C, symSize: 0x2C }
  - { offsetInCU: 0xE14D, offset: 0xE14D, size: 0x8, addend: 0x0, symName: __ZNSt3__116reverse_iteratorIP4TaskEppB7v160006Ev, symObjAddr: 0x2F5C, symBinAddr: 0x10000359C, symSize: 0x20 }
  - { offsetInCU: 0xE172, offset: 0xE172, size: 0x8, addend: 0x0, symName: __ZNKSt3__116reverse_iteratorIP4TaskE4baseB7v160006Ev, symObjAddr: 0x2F7C, symBinAddr: 0x1000035BC, symSize: 0x18 }
  - { offsetInCU: 0xE197, offset: 0xE197, size: 0x8, addend: 0x0, symName: __ZNSt3__19allocatorI4TaskE7destroyB7v160006EPS1_, symObjAddr: 0x2F94, symBinAddr: 0x1000035D4, symSize: 0x28 }
  - { offsetInCU: 0xE1CF, offset: 0xE1CF, size: 0x8, addend: 0x0, symName: __ZNSt3__119__to_address_helperINS_16reverse_iteratorIP4TaskEEvE6__callB7v160006ERKS4_, symObjAddr: 0x2FBC, symBinAddr: 0x1000035FC, symSize: 0x38 }
  - { offsetInCU: 0xE1F2, offset: 0xE1F2, size: 0x8, addend: 0x0, symName: __ZNKSt3__116reverse_iteratorIP4TaskEptB7v160006Ev, symObjAddr: 0x2FF4, symBinAddr: 0x100003634, symSize: 0x24 }
  - { offsetInCU: 0xE217, offset: 0xE217, size: 0x8, addend: 0x0, symName: __ZNKSt3__116reverse_iteratorIP4TaskEdeB7v160006Ev, symObjAddr: 0x3018, symBinAddr: 0x100003658, symSize: 0x28 }
  - { offsetInCU: 0xE24A, offset: 0xE24A, size: 0x8, addend: 0x0, symName: __ZNSt3__116reverse_iteratorIP4TaskEC2B7v160006ES2_, symObjAddr: 0x3040, symBinAddr: 0x100003680, symSize: 0x28 }
  - { offsetInCU: 0xE281, offset: 0xE281, size: 0x8, addend: 0x0, symName: __ZNSt3__16vectorI4TaskNS_9allocatorIS1_EEE21_ConstructTransactionD2B7v160006Ev, symObjAddr: 0x3068, symBinAddr: 0x1000036A8, symSize: 0x20 }
  - { offsetInCU: 0xE2AA, offset: 0xE2AA, size: 0x8, addend: 0x0, symName: __ZNSt3__128__exception_guard_exceptionsINS_6vectorI4TaskNS_9allocatorIS2_EEE16__destroy_vectorEED2B7v160006Ev, symObjAddr: 0x3088, symBinAddr: 0x1000036C8, symSize: 0x50 }
  - { offsetInCU: 0xE2D3, offset: 0xE2D3, size: 0x8, addend: 0x0, symName: __ZNSt3__16vectorI4TaskNS_9allocatorIS1_EEE16__destroy_vectorclB7v160006Ev, symObjAddr: 0x30D8, symBinAddr: 0x100003718, symSize: 0x9C }
  - { offsetInCU: 0xE2F8, offset: 0xE2F8, size: 0x8, addend: 0x0, symName: __ZNKSt3__16vectorI4TaskNS_9allocatorIS1_EEE17__annotate_deleteB7v160006Ev, symObjAddr: 0x3174, symBinAddr: 0x1000037B4, symSize: 0xD4 }
  - { offsetInCU: 0xE31D, offset: 0xE31D, size: 0x8, addend: 0x0, symName: __ZNSt3__16vectorI4TaskNS_9allocatorIS1_EEE7__clearB7v160006Ev, symObjAddr: 0x3258, symBinAddr: 0x100003898, symSize: 0x28 }
  - { offsetInCU: 0xE342, offset: 0xE342, size: 0x8, addend: 0x0, symName: __ZNSt3__116allocator_traitsINS_9allocatorI4TaskEEE10deallocateB7v160006ERS3_PS2_m, symObjAddr: 0x3280, symBinAddr: 0x1000038C0, symSize: 0x34 }
  - { offsetInCU: 0xE384, offset: 0xE384, size: 0x8, addend: 0x0, symName: __ZNSt3__16vectorI4TaskNS_9allocatorIS1_EEE22__base_destruct_at_endB7v160006EPS1_, symObjAddr: 0x32B4, symBinAddr: 0x1000038F4, symSize: 0x8C }
  - { offsetInCU: 0xE3C7, offset: 0xE3C7, size: 0x8, addend: 0x0, symName: __ZNSt3__19allocatorI4TaskE10deallocateB7v160006EPS1_m, symObjAddr: 0x3340, symBinAddr: 0x100003980, symSize: 0x44 }
  - { offsetInCU: 0xE408, offset: 0xE408, size: 0x8, addend: 0x0, symName: __ZNSt3__16vectorI4TaskNS_9allocatorIS1_EEED2B7v160006Ev, symObjAddr: 0x3400, symBinAddr: 0x100003A40, symSize: 0x44 }
  - { offsetInCU: 0xE431, offset: 0xE431, size: 0x8, addend: 0x0, symName: __ZNSt3__111char_traitsIcE6lengthEPKc, symObjAddr: 0x3630, symBinAddr: 0x100003C70, symSize: 0x34 }
  - { offsetInCU: 0xE472, offset: 0xE472, size: 0x8, addend: 0x0, symName: __ZNKSt3__113basic_ostreamIcNS_11char_traitsIcEEE6sentrycvbB7v160006Ev, symObjAddr: 0x3664, symBinAddr: 0x100003CA4, symSize: 0x1C }
  - { offsetInCU: 0xE497, offset: 0xE497, size: 0x8, addend: 0x0, symName: __ZNSt3__119ostreambuf_iteratorIcNS_11char_traitsIcEEEC1B7v160006ERNS_13basic_ostreamIcS2_EE, symObjAddr: 0x38C0, symBinAddr: 0x100003F00, symSize: 0x34 }
  - { offsetInCU: 0xE4CE, offset: 0xE4CE, size: 0x8, addend: 0x0, symName: __ZNKSt3__18ios_base5flagsB7v160006Ev, symObjAddr: 0x38F4, symBinAddr: 0x100003F34, symSize: 0x18 }
  - { offsetInCU: 0xE4F5, offset: 0xE4F5, size: 0x8, addend: 0x0, symName: __ZNKSt3__19basic_iosIcNS_11char_traitsIcEEE4fillB7v160006Ev, symObjAddr: 0x390C, symBinAddr: 0x100003F4C, symSize: 0x64 }
  - { offsetInCU: 0xE51B, offset: 0xE51B, size: 0x8, addend: 0x0, symName: __ZNKSt3__119ostreambuf_iteratorIcNS_11char_traitsIcEEE6failedB7v160006Ev, symObjAddr: 0x3970, symBinAddr: 0x100003FB0, symSize: 0x24 }
  - { offsetInCU: 0xE540, offset: 0xE540, size: 0x8, addend: 0x0, symName: __ZNSt3__19basic_iosIcNS_11char_traitsIcEEE8setstateB7v160006Ej, symObjAddr: 0x3994, symBinAddr: 0x100003FD4, symSize: 0x2C }
  - { offsetInCU: 0xE574, offset: 0xE574, size: 0x8, addend: 0x0, symName: __ZNKSt3__18ios_base5widthB7v160006Ev, symObjAddr: 0x39C0, symBinAddr: 0x100004000, symSize: 0x18 }
  - { offsetInCU: 0xE59B, offset: 0xE59B, size: 0x8, addend: 0x0, symName: __ZNSt3__115basic_streambufIcNS_11char_traitsIcEEE5sputnB7v160006EPKcl, symObjAddr: 0x39D8, symBinAddr: 0x100004018, symSize: 0x3C }
  - { offsetInCU: 0xE5DC, offset: 0xE5DC, size: 0x8, addend: 0x0, symName: __ZNSt3__112basic_stringIcNS_11char_traitsIcEENS_9allocatorIcEEEC1B7v160006Emc, symObjAddr: 0x3A14, symBinAddr: 0x100004054, symSize: 0x3C }
  - { offsetInCU: 0xE623, offset: 0xE623, size: 0x8, addend: 0x0, symName: __ZNKSt3__112basic_stringIcNS_11char_traitsIcEENS_9allocatorIcEEE4dataB7v160006Ev, symObjAddr: 0x3A50, symBinAddr: 0x100004090, symSize: 0x28 }
  - { offsetInCU: 0xE648, offset: 0xE648, size: 0x8, addend: 0x0, symName: __ZNSt3__18ios_base5widthB7v160006El, symObjAddr: 0x3A78, symBinAddr: 0x1000040B8, symSize: 0x2C }
  - { offsetInCU: 0xE68D, offset: 0xE68D, size: 0x8, addend: 0x0, symName: __ZNSt3__112basic_stringIcNS_11char_traitsIcEENS_9allocatorIcEEEC2B7v160006Emc, symObjAddr: 0x3AA4, symBinAddr: 0x1000040E4, symSize: 0x54 }
  - { offsetInCU: 0xE6D4, offset: 0xE6D4, size: 0x8, addend: 0x0, symName: __ZNKSt3__112basic_stringIcNS_11char_traitsIcEENS_9allocatorIcEEE13__get_pointerB7v160006Ev, symObjAddr: 0x3B0C, symBinAddr: 0x10000414C, symSize: 0x54 }
  - { offsetInCU: 0xE6F9, offset: 0xE6F9, size: 0x8, addend: 0x0, symName: __ZNKSt3__112basic_stringIcNS_11char_traitsIcEENS_9allocatorIcEEE9__is_longB7v160006Ev, symObjAddr: 0x3B60, symBinAddr: 0x1000041A0, symSize: 0x38 }
  - { offsetInCU: 0xE71E, offset: 0xE71E, size: 0x8, addend: 0x0, symName: __ZNKSt3__112basic_stringIcNS_11char_traitsIcEENS_9allocatorIcEEE18__get_long_pointerB7v160006Ev, symObjAddr: 0x3B98, symBinAddr: 0x1000041D8, symSize: 0x28 }
  - { offsetInCU: 0xE743, offset: 0xE743, size: 0x8, addend: 0x0, symName: __ZNKSt3__112basic_stringIcNS_11char_traitsIcEENS_9allocatorIcEEE19__get_short_pointerB7v160006Ev, symObjAddr: 0x3BC0, symBinAddr: 0x100004200, symSize: 0x28 }
  - { offsetInCU: 0xE768, offset: 0xE768, size: 0x8, addend: 0x0, symName: __ZNKSt3__117__compressed_pairINS_12basic_stringIcNS_11char_traitsIcEENS_9allocatorIcEEE5__repES5_E5firstB7v160006Ev, symObjAddr: 0x3BE8, symBinAddr: 0x100004228, symSize: 0x24 }
  - { offsetInCU: 0xE78D, offset: 0xE78D, size: 0x8, addend: 0x0, symName: __ZNKSt3__122__compressed_pair_elemINS_12basic_stringIcNS_11char_traitsIcEENS_9allocatorIcEEE5__repELi0ELb0EE5__getB7v160006Ev, symObjAddr: 0x3C0C, symBinAddr: 0x10000424C, symSize: 0x14 }
  - { offsetInCU: 0xE7B2, offset: 0xE7B2, size: 0x8, addend: 0x0, symName: __ZNSt3__114pointer_traitsIPKcE10pointer_toB7v160006ERS1_, symObjAddr: 0x3C20, symBinAddr: 0x100004260, symSize: 0x14 }
  - { offsetInCU: 0xE7D5, offset: 0xE7D5, size: 0x8, addend: 0x0, symName: __ZNSt3__119ostreambuf_iteratorIcNS_11char_traitsIcEEEC2B7v160006ERNS_13basic_ostreamIcS2_EE, symObjAddr: 0x3C34, symBinAddr: 0x100004274, symSize: 0x54 }
  - { offsetInCU: 0xE80C, offset: 0xE80C, size: 0x8, addend: 0x0, symName: __ZNKSt3__19basic_iosIcNS_11char_traitsIcEEE5rdbufB7v160006Ev, symObjAddr: 0x3C88, symBinAddr: 0x1000042C8, symSize: 0x24 }
  - { offsetInCU: 0xE832, offset: 0xE832, size: 0x8, addend: 0x0, symName: __ZNKSt3__18ios_base5rdbufB7v160006Ev, symObjAddr: 0x3CAC, symBinAddr: 0x1000042EC, symSize: 0x18 }
  - { offsetInCU: 0xE857, offset: 0xE857, size: 0x8, addend: 0x0, symName: __ZNSt3__111char_traitsIcE11eq_int_typeEii, symObjAddr: 0x3CC4, symBinAddr: 0x100004304, symSize: 0x28 }
  - { offsetInCU: 0xE888, offset: 0xE888, size: 0x8, addend: 0x0, symName: __ZNSt3__111char_traitsIcE3eofEv, symObjAddr: 0x3CEC, symBinAddr: 0x10000432C, symSize: 0x8 }
  - { offsetInCU: 0xE89C, offset: 0xE89C, size: 0x8, addend: 0x0, symName: __ZNKSt3__19basic_iosIcNS_11char_traitsIcEEE5widenB7v160006Ec, symObjAddr: 0x3CF4, symBinAddr: 0x100004334, symSize: 0x84 }
  - { offsetInCU: 0xE908, offset: 0xE908, size: 0x8, addend: 0x0, symName: __ZNKSt3__15ctypeIcE5widenB7v160006Ec, symObjAddr: 0x3DA4, symBinAddr: 0x1000043E4, symSize: 0x38 }
  - { offsetInCU: 0xE93C, offset: 0xE93C, size: 0x8, addend: 0x0, symName: __ZNSt3__18ios_base8setstateB7v160006Ej, symObjAddr: 0x3DDC, symBinAddr: 0x10000441C, symSize: 0x34 }
  - { offsetInCU: 0xE971, offset: 0xE971, size: 0x8, addend: 0x0, symName: __ZNSt3__19basic_iosIcNS_11char_traitsIcEEEC2B7v160006Ev, symObjAddr: 0x3E34, symBinAddr: 0x100004474, symSize: 0x44 }
  - { offsetInCU: 0xE99A, offset: 0xE99A, size: 0x8, addend: 0x0, symName: __ZNSt3__114basic_iostreamIcNS_11char_traitsIcEEEC2B7v160006EPNS_15basic_streambufIcS2_EE, symObjAddr: 0x3E78, symBinAddr: 0x1000044B8, symSize: 0xAC }
  - { offsetInCU: 0xE9DE, offset: 0xE9DE, size: 0x8, addend: 0x0, symName: __ZNSt3__115basic_stringbufIcNS_11char_traitsIcEENS_9allocatorIcEEEC1B7v160006Ej, symObjAddr: 0x3F24, symBinAddr: 0x100004564, symSize: 0x34 }
  - { offsetInCU: 0xEA15, offset: 0xEA15, size: 0x8, addend: 0x0, symName: __ZNSt3__18ios_baseC2B7v160006Ev, symObjAddr: 0x3F58, symBinAddr: 0x100004598, symSize: 0x24 }
  - { offsetInCU: 0xEA3E, offset: 0xEA3E, size: 0x8, addend: 0x0, symName: __ZNSt3__113basic_istreamIcNS_11char_traitsIcEEEC2B7v160006EPNS_15basic_streambufIcS2_EE, symObjAddr: 0x3F7C, symBinAddr: 0x1000045BC, symSize: 0x64 }
  - { offsetInCU: 0xEA81, offset: 0xEA81, size: 0x8, addend: 0x0, symName: __ZNSt3__113basic_ostreamIcNS_11char_traitsIcEEEC2B7v160006Ev, symObjAddr: 0x3FE0, symBinAddr: 0x100004620, symSize: 0x34 }
  - { offsetInCU: 0xEAB6, offset: 0xEAB6, size: 0x8, addend: 0x0, symName: __ZNSt3__19basic_iosIcNS_11char_traitsIcEEE4initB7v160006EPNS_15basic_streambufIcS2_EE, symObjAddr: 0x4014, symBinAddr: 0x100004654, symSize: 0x44 }
  - { offsetInCU: 0xEAEB, offset: 0xEAEB, size: 0x8, addend: 0x0, symName: __ZNSt3__115basic_stringbufIcNS_11char_traitsIcEENS_9allocatorIcEEEC2B7v160006Ej, symObjAddr: 0x4058, symBinAddr: 0x100004698, symSize: 0x60 }
  - { offsetInCU: 0xEB27, offset: 0xEB27, size: 0x8, addend: 0x0, symName: __ZNSt3__19__iom_t10IcEC1B7v160006EPK2tmPKc, symObjAddr: 0x40B8, symBinAddr: 0x1000046F8, symSize: 0x3C }
  - { offsetInCU: 0xEB6E, offset: 0xEB6E, size: 0x8, addend: 0x0, symName: __ZNSt3__19__iom_t10IcEC2B7v160006EPK2tmPKc, symObjAddr: 0x40F4, symBinAddr: 0x100004734, symSize: 0x2C }
  - { offsetInCU: 0xEBD3, offset: 0xEBD3, size: 0x8, addend: 0x0, symName: __ZNKSt3__113basic_istreamIcNS_11char_traitsIcEEE6sentrycvbB7v160006Ev, symObjAddr: 0x4384, symBinAddr: 0x1000049C4, symSize: 0x1C }
  - { offsetInCU: 0xEBF8, offset: 0xEBF8, size: 0x8, addend: 0x0, symName: __ZNSt3__112basic_stringIcNS_11char_traitsIcEENS_9allocatorIcEEE5clearB7v160006Ev, symObjAddr: 0x43A0, symBinAddr: 0x1000049E0, symSize: 0x88 }
  - { offsetInCU: 0xEC1E, offset: 0xEC1E, size: 0x8, addend: 0x0, symName: __ZNSt3__115basic_streambufIcNS_11char_traitsIcEEE6sbumpcB7v160006Ev, symObjAddr: 0x4428, symBinAddr: 0x100004A68, symSize: 0x78 }
  - { offsetInCU: 0xEC43, offset: 0xEC43, size: 0x8, addend: 0x0, symName: __ZNSt3__111char_traitsIcE12to_char_typeEi, symObjAddr: 0x44A0, symBinAddr: 0x100004AE0, symSize: 0x18 }
  - { offsetInCU: 0xEC66, offset: 0xEC66, size: 0x8, addend: 0x0, symName: __ZNSt3__111char_traitsIcE2eqEcc, symObjAddr: 0x44B8, symBinAddr: 0x100004AF8, symSize: 0x28 }
  - { offsetInCU: 0xEC97, offset: 0xEC97, size: 0x8, addend: 0x0, symName: __ZNKSt3__112basic_stringIcNS_11char_traitsIcEENS_9allocatorIcEEE4sizeB7v160006Ev, symObjAddr: 0x44E0, symBinAddr: 0x100004B20, symSize: 0x54 }
  - { offsetInCU: 0xECBC, offset: 0xECBC, size: 0x8, addend: 0x0, symName: __ZNKSt3__112basic_stringIcNS_11char_traitsIcEENS_9allocatorIcEEE8max_sizeB7v160006Ev, symObjAddr: 0x4534, symBinAddr: 0x100004B74, symSize: 0xAC }
  - { offsetInCU: 0xED0E, offset: 0xED0E, size: 0x8, addend: 0x0, symName: __ZNSt3__18ios_base18__setstate_nothrowB7v160006Ej, symObjAddr: 0x45E0, symBinAddr: 0x100004C20, symSize: 0x64 }
  - { offsetInCU: 0xED42, offset: 0xED42, size: 0x8, addend: 0x0, symName: __ZNKSt3__19basic_iosIcNS_11char_traitsIcEEE10exceptionsB7v160006Ev, symObjAddr: 0x4644, symBinAddr: 0x100004C84, symSize: 0x24 }
  - { offsetInCU: 0xED67, offset: 0xED67, size: 0x8, addend: 0x0, symName: __ZNSt3__111char_traitsIcE6assignERcRKc, symObjAddr: 0x4678, symBinAddr: 0x100004CB8, symSize: 0x24 }
  - { offsetInCU: 0xED98, offset: 0xED98, size: 0x8, addend: 0x0, symName: __ZNSt3__112basic_stringIcNS_11char_traitsIcEENS_9allocatorIcEEE18__get_long_pointerB7v160006Ev, symObjAddr: 0x469C, symBinAddr: 0x100004CDC, symSize: 0x28 }
  - { offsetInCU: 0xEDBD, offset: 0xEDBD, size: 0x8, addend: 0x0, symName: __ZNSt3__112basic_stringIcNS_11char_traitsIcEENS_9allocatorIcEEE15__set_long_sizeB7v160006Em, symObjAddr: 0x46C4, symBinAddr: 0x100004D04, symSize: 0x38 }
  - { offsetInCU: 0xEDF1, offset: 0xEDF1, size: 0x8, addend: 0x0, symName: __ZNSt3__112basic_stringIcNS_11char_traitsIcEENS_9allocatorIcEEE19__get_short_pointerB7v160006Ev, symObjAddr: 0x46FC, symBinAddr: 0x100004D3C, symSize: 0x28 }
  - { offsetInCU: 0xEE16, offset: 0xEE16, size: 0x8, addend: 0x0, symName: __ZNSt3__112basic_stringIcNS_11char_traitsIcEENS_9allocatorIcEEE16__set_short_sizeB7v160006Em, symObjAddr: 0x4724, symBinAddr: 0x100004D64, symSize: 0x78 }
  - { offsetInCU: 0xEE4A, offset: 0xEE4A, size: 0x8, addend: 0x0, symName: __ZNSt3__114pointer_traitsIPcE10pointer_toB7v160006ERc, symObjAddr: 0x479C, symBinAddr: 0x100004DDC, symSize: 0x14 }
  - { offsetInCU: 0xEE6D, offset: 0xEE6D, size: 0x8, addend: 0x0, symName: __ZNSt3__111char_traitsIcE11to_int_typeEc, symObjAddr: 0x47B0, symBinAddr: 0x100004DF0, symSize: 0x14 }
  - { offsetInCU: 0xEE90, offset: 0xEE90, size: 0x8, addend: 0x0, symName: __ZNKSt3__112basic_stringIcNS_11char_traitsIcEENS_9allocatorIcEEE15__get_long_sizeB7v160006Ev, symObjAddr: 0x47C4, symBinAddr: 0x100004E04, symSize: 0x28 }
  - { offsetInCU: 0xEEB5, offset: 0xEEB5, size: 0x8, addend: 0x0, symName: __ZNKSt3__112basic_stringIcNS_11char_traitsIcEENS_9allocatorIcEEE16__get_short_sizeB7v160006Ev, symObjAddr: 0x47EC, symBinAddr: 0x100004E2C, symSize: 0x34 }
  - { offsetInCU: 0xEEE4, offset: 0xEEE4, size: 0x8, addend: 0x0, symName: __ZNSt3__116allocator_traitsINS_9allocatorIcEEE8max_sizeB7v160006IS2_vEEmRKS2_, symObjAddr: 0x4820, symBinAddr: 0x100004E60, symSize: 0x24 }
  - { offsetInCU: 0xEF12, offset: 0xEF12, size: 0x8, addend: 0x0, symName: __ZNKSt3__112basic_stringIcNS_11char_traitsIcEENS_9allocatorIcEEE7__allocB7v160006Ev, symObjAddr: 0x4844, symBinAddr: 0x100004E84, symSize: 0x24 }
  - { offsetInCU: 0xEF37, offset: 0xEF37, size: 0x8, addend: 0x0, symName: __ZNSt3__114numeric_limitsImE3maxB7v160006Ev, symObjAddr: 0x4868, symBinAddr: 0x100004EA8, symSize: 0x14 }
  - { offsetInCU: 0xEF4B, offset: 0xEF4B, size: 0x8, addend: 0x0, symName: __ZNKSt3__19allocatorIcE8max_sizeB7v160006Ev, symObjAddr: 0x487C, symBinAddr: 0x100004EBC, symSize: 0x14 }
  - { offsetInCU: 0xEF70, offset: 0xEF70, size: 0x8, addend: 0x0, symName: __ZNKSt3__117__compressed_pairINS_12basic_stringIcNS_11char_traitsIcEENS_9allocatorIcEEE5__repES5_E6secondB7v160006Ev, symObjAddr: 0x4890, symBinAddr: 0x100004ED0, symSize: 0x24 }
  - { offsetInCU: 0xEF95, offset: 0xEF95, size: 0x8, addend: 0x0, symName: __ZNKSt3__122__compressed_pair_elemINS_9allocatorIcEELi1ELb1EE5__getB7v160006Ev, symObjAddr: 0x48B4, symBinAddr: 0x100004EF4, symSize: 0x14 }
  - { offsetInCU: 0xEFBA, offset: 0xEFBA, size: 0x8, addend: 0x0, symName: __ZNSt3__123__libcpp_numeric_limitsImLb1EE3maxB7v160006Ev, symObjAddr: 0x48C8, symBinAddr: 0x100004F08, symSize: 0x8 }
  - { offsetInCU: 0xEFCE, offset: 0xEFCE, size: 0x8, addend: 0x0, symName: __ZNKSt3__18ios_base10exceptionsB7v160006Ev, symObjAddr: 0x48D0, symBinAddr: 0x100004F10, symSize: 0x18 }
  - { offsetInCU: 0xEFF5, offset: 0xEFF5, size: 0x8, addend: 0x0, symName: __ZNSt3__112basic_stringIcNS_11char_traitsIcEENS_9allocatorIcEEE13__get_pointerB7v160006Ev, symObjAddr: 0x48E8, symBinAddr: 0x100004F28, symSize: 0x54 }
  - { offsetInCU: 0xF01A, offset: 0xF01A, size: 0x8, addend: 0x0, symName: __ZNSt3__16vectorI4TaskNS_9allocatorIS1_EEE22__construct_one_at_endB7v160006IJRKS1_EEEvDpOT_, symObjAddr: 0x493C, symBinAddr: 0x100004F7C, symSize: 0x90 }
  - { offsetInCU: 0xF068, offset: 0xF068, size: 0x8, addend: 0x0, symName: __ZNSt3__16vectorI4TaskNS_9allocatorIS1_EEE21__push_back_slow_pathIRKS1_EEvOT_, symObjAddr: 0x49CC, symBinAddr: 0x10000500C, symSize: 0xD8 }
  - { offsetInCU: 0xF0C4, offset: 0xF0C4, size: 0x8, addend: 0x0, symName: __ZNSt3__116allocator_traitsINS_9allocatorI4TaskEEE9constructB7v160006IS2_JRKS2_EvEEvRS3_PT_DpOT0_, symObjAddr: 0x4AA4, symBinAddr: 0x1000050E4, symSize: 0x34 }
  - { offsetInCU: 0xF11B, offset: 0xF11B, size: 0x8, addend: 0x0, symName: __ZNSt3__19allocatorI4TaskE9constructB7v160006IS1_JRKS1_EEEvPT_DpOT0_, symObjAddr: 0x4AD8, symBinAddr: 0x100005118, symSize: 0x30 }
  - { offsetInCU: 0xF170, offset: 0xF170, size: 0x8, addend: 0x0, symName: __ZNKSt3__16vectorI4TaskNS_9allocatorIS1_EEE11__recommendB7v160006Em, symObjAddr: 0x4B08, symBinAddr: 0x100005148, symSize: 0xB4 }
  - { offsetInCU: 0xF1C3, offset: 0xF1C3, size: 0x8, addend: 0x0, symName: __ZNSt3__114__split_bufferI4TaskRNS_9allocatorIS1_EEEC1EmmS4_, symObjAddr: 0x4BBC, symBinAddr: 0x1000051FC, symSize: 0x44 }
  - { offsetInCU: 0xF218, offset: 0xF218, size: 0x8, addend: 0x0, symName: __ZNSt3__114__split_bufferI4TaskRNS_9allocatorIS1_EEED1Ev, symObjAddr: 0x4D18, symBinAddr: 0x100005358, symSize: 0x2C }
  - { offsetInCU: 0xF243, offset: 0xF243, size: 0x8, addend: 0x0, symName: __ZNSt3__114__split_bufferI4TaskRNS_9allocatorIS1_EEEC2EmmS4_, symObjAddr: 0x4DC4, symBinAddr: 0x100005404, symSize: 0xE0 }
  - { offsetInCU: 0xF2B6, offset: 0xF2B6, size: 0x8, addend: 0x0, symName: __ZNSt3__117__compressed_pairIP4TaskRNS_9allocatorIS1_EEEC1B7v160006IDnS5_EEOT_OT0_, symObjAddr: 0x4EA4, symBinAddr: 0x1000054E4, symSize: 0x3C }
  - { offsetInCU: 0xF30D, offset: 0xF30D, size: 0x8, addend: 0x0, symName: __ZNSt3__114__split_bufferI4TaskRNS_9allocatorIS1_EEE7__allocB7v160006Ev, symObjAddr: 0x4EE0, symBinAddr: 0x100005520, symSize: 0x28 }
  - { offsetInCU: 0xF332, offset: 0xF332, size: 0x8, addend: 0x0, symName: __ZNSt3__114__split_bufferI4TaskRNS_9allocatorIS1_EEE9__end_capB7v160006Ev, symObjAddr: 0x4F08, symBinAddr: 0x100005548, symSize: 0x28 }
  - { offsetInCU: 0xF357, offset: 0xF357, size: 0x8, addend: 0x0, symName: __ZNSt3__117__compressed_pairIP4TaskRNS_9allocatorIS1_EEEC2B7v160006IDnS5_EEOT_OT0_, symObjAddr: 0x4F30, symBinAddr: 0x100005570, symSize: 0x48 }
  - { offsetInCU: 0xF3AE, offset: 0xF3AE, size: 0x8, addend: 0x0, symName: __ZNSt3__122__compressed_pair_elemIRNS_9allocatorI4TaskEELi1ELb0EEC2B7v160006IS4_vEEOT_, symObjAddr: 0x4F78, symBinAddr: 0x1000055B8, symSize: 0x20 }
  - { offsetInCU: 0xF3EF, offset: 0xF3EF, size: 0x8, addend: 0x0, symName: __ZNSt3__117__compressed_pairIP4TaskRNS_9allocatorIS1_EEE6secondB7v160006Ev, symObjAddr: 0x4F98, symBinAddr: 0x1000055D8, symSize: 0x28 }
  - { offsetInCU: 0xF414, offset: 0xF414, size: 0x8, addend: 0x0, symName: __ZNSt3__122__compressed_pair_elemIRNS_9allocatorI4TaskEELi1ELb0EE5__getB7v160006Ev, symObjAddr: 0x4FC0, symBinAddr: 0x100005600, symSize: 0x18 }
  - { offsetInCU: 0xF439, offset: 0xF439, size: 0x8, addend: 0x0, symName: __ZNSt3__117__compressed_pairIP4TaskRNS_9allocatorIS1_EEE5firstB7v160006Ev, symObjAddr: 0x4FD8, symBinAddr: 0x100005618, symSize: 0x24 }
  - { offsetInCU: 0xF45E, offset: 0xF45E, size: 0x8, addend: 0x0, symName: __ZNSt3__129_AllocatorDestroyRangeReverseINS_9allocatorI4TaskEENS_16reverse_iteratorIPS2_EEEC1B7v160006ERS3_RS6_S9_, symObjAddr: 0x51B0, symBinAddr: 0x1000057F0, symSize: 0x44 }
  - { offsetInCU: 0xF4B9, offset: 0xF4B9, size: 0x8, addend: 0x0, symName: __ZNSt3__116allocator_traitsINS_9allocatorI4TaskEEE9constructB7v160006IS2_JS2_EvEEvRS3_PT_DpOT0_, symObjAddr: 0x51F4, symBinAddr: 0x100005834, symSize: 0x34 }
  - { offsetInCU: 0xF510, offset: 0xF510, size: 0x8, addend: 0x0, symName: __ZNSt3__128__exception_guard_exceptionsINS_29_AllocatorDestroyRangeReverseINS_9allocatorI4TaskEENS_16reverse_iteratorIPS3_EEEEE10__completeB7v160006Ev, symObjAddr: 0x5228, symBinAddr: 0x100005868, symSize: 0x1C }
  - { offsetInCU: 0xF535, offset: 0xF535, size: 0x8, addend: 0x0, symName: __ZNSt3__128__exception_guard_exceptionsINS_29_AllocatorDestroyRangeReverseINS_9allocatorI4TaskEENS_16reverse_iteratorIPS3_EEEEED1B7v160006Ev, symObjAddr: 0x5244, symBinAddr: 0x100005884, symSize: 0x2C }
  - { offsetInCU: 0xF55E, offset: 0xF55E, size: 0x8, addend: 0x0, symName: __ZNSt3__128__exception_guard_exceptionsINS_29_AllocatorDestroyRangeReverseINS_9allocatorI4TaskEENS_16reverse_iteratorIPS3_EEEEEC1B7v160006ES8_, symObjAddr: 0x5270, symBinAddr: 0x1000058B0, symSize: 0x34 }
  - { offsetInCU: 0xF596, offset: 0xF596, size: 0x8, addend: 0x0, symName: __ZNSt3__128__exception_guard_exceptionsINS_29_AllocatorDestroyRangeReverseINS_9allocatorI4TaskEENS_16reverse_iteratorIPS3_EEEEEC2B7v160006ES8_, symObjAddr: 0x52A4, symBinAddr: 0x1000058E4, symSize: 0x30 }
  - { offsetInCU: 0xF5CE, offset: 0xF5CE, size: 0x8, addend: 0x0, symName: __ZNSt3__129_AllocatorDestroyRangeReverseINS_9allocatorI4TaskEENS_16reverse_iteratorIPS2_EEEC2B7v160006ERS3_RS6_S9_, symObjAddr: 0x52D4, symBinAddr: 0x100005914, symSize: 0x38 }
  - { offsetInCU: 0xF624, offset: 0xF624, size: 0x8, addend: 0x0, symName: __ZNSt3__19allocatorI4TaskE9constructB7v160006IS1_JS1_EEEvPT_DpOT0_, symObjAddr: 0x530C, symBinAddr: 0x10000594C, symSize: 0x30 }
  - { offsetInCU: 0xF679, offset: 0xF679, size: 0x8, addend: 0x0, symName: __ZN4TaskC1EOS_, symObjAddr: 0x533C, symBinAddr: 0x10000597C, symSize: 0x34 }
  - { offsetInCU: 0xF6AD, offset: 0xF6AD, size: 0x8, addend: 0x0, symName: __ZN4TaskC2EOS_, symObjAddr: 0x5370, symBinAddr: 0x1000059B0, symSize: 0x5C }
  - { offsetInCU: 0xF6E1, offset: 0xF6E1, size: 0x8, addend: 0x0, symName: __ZNSt3__112basic_stringIcNS_11char_traitsIcEENS_9allocatorIcEEEC1B7v160006EOS5_, symObjAddr: 0x53CC, symBinAddr: 0x100005A0C, symSize: 0x34 }
  - { offsetInCU: 0xF719, offset: 0xF719, size: 0x8, addend: 0x0, symName: __ZNSt3__16vectorI4TaskNS_9allocatorIS1_EEEC1B7v160006EOS4_, symObjAddr: 0x5400, symBinAddr: 0x100005A40, symSize: 0x34 }
  - { offsetInCU: 0xF753, offset: 0xF753, size: 0x8, addend: 0x0, symName: __ZNSt3__112basic_stringIcNS_11char_traitsIcEENS_9allocatorIcEEEC2B7v160006EOS5_, symObjAddr: 0x5434, symBinAddr: 0x100005A74, symSize: 0x80 }
  - { offsetInCU: 0xF78B, offset: 0xF78B, size: 0x8, addend: 0x0, symName: __ZNSt3__16vectorI4TaskNS_9allocatorIS1_EEEC2B7v160006EOS4_, symObjAddr: 0x54C8, symBinAddr: 0x100005B08, symSize: 0xDC }
  - { offsetInCU: 0xF7C5, offset: 0xF7C5, size: 0x8, addend: 0x0, symName: __ZNSt3__128__exception_guard_exceptionsINS_29_AllocatorDestroyRangeReverseINS_9allocatorI4TaskEENS_16reverse_iteratorIPS3_EEEEED2B7v160006Ev, symObjAddr: 0x55B8, symBinAddr: 0x100005BF8, symSize: 0x50 }
  - { offsetInCU: 0xF7EE, offset: 0xF7EE, size: 0x8, addend: 0x0, symName: __ZNKSt3__129_AllocatorDestroyRangeReverseINS_9allocatorI4TaskEENS_16reverse_iteratorIPS2_EEEclB7v160006Ev, symObjAddr: 0x5608, symBinAddr: 0x100005C48, symSize: 0xB4 }
  - { offsetInCU: 0xF814, offset: 0xF814, size: 0x8, addend: 0x0, symName: __ZNSt3__116reverse_iteratorINS0_IP4TaskEEEC1B7v160006ES3_, symObjAddr: 0x572C, symBinAddr: 0x100005D6C, symSize: 0x3C }
  - { offsetInCU: 0xF84B, offset: 0xF84B, size: 0x8, addend: 0x0, symName: __ZNSt3__116reverse_iteratorINS0_IP4TaskEEEppB7v160006Ev, symObjAddr: 0x57EC, symBinAddr: 0x100005E2C, symSize: 0x30 }
  - { offsetInCU: 0xF870, offset: 0xF870, size: 0x8, addend: 0x0, symName: __ZNKSt3__116reverse_iteratorINS0_IP4TaskEEE4baseB7v160006Ev, symObjAddr: 0x581C, symBinAddr: 0x100005E5C, symSize: 0x24 }
  - { offsetInCU: 0xF89A, offset: 0xF89A, size: 0x8, addend: 0x0, symName: __ZNSt3__119__to_address_helperINS_16reverse_iteratorINS1_IP4TaskEEEEvE6__callB7v160006ERKS5_, symObjAddr: 0x5840, symBinAddr: 0x100005E80, symSize: 0x38 }
  - { offsetInCU: 0xF8BD, offset: 0xF8BD, size: 0x8, addend: 0x0, symName: __ZNKSt3__116reverse_iteratorINS0_IP4TaskEEEptB7v160006Ev, symObjAddr: 0x5878, symBinAddr: 0x100005EB8, symSize: 0x24 }
  - { offsetInCU: 0xF8E2, offset: 0xF8E2, size: 0x8, addend: 0x0, symName: __ZNKSt3__116reverse_iteratorINS0_IP4TaskEEEdeB7v160006Ev, symObjAddr: 0x589C, symBinAddr: 0x100005EDC, symSize: 0x34 }
  - { offsetInCU: 0xF915, offset: 0xF915, size: 0x8, addend: 0x0, symName: __ZNSt3__116reverse_iteratorIP4TaskEmmB7v160006Ev, symObjAddr: 0x58D0, symBinAddr: 0x100005F10, symSize: 0x20 }
  - { offsetInCU: 0xF93A, offset: 0xF93A, size: 0x8, addend: 0x0, symName: __ZNSt3__116reverse_iteratorINS0_IP4TaskEEEC2B7v160006ES3_, symObjAddr: 0x58F0, symBinAddr: 0x100005F30, symSize: 0x2C }
  - { offsetInCU: 0xF971, offset: 0xF971, size: 0x8, addend: 0x0, symName: __ZNSt3__114__split_bufferI4TaskRNS_9allocatorIS1_EEED2Ev, symObjAddr: 0x591C, symBinAddr: 0x100005F5C, symSize: 0x8C }
  - { offsetInCU: 0xF99C, offset: 0xF99C, size: 0x8, addend: 0x0, symName: __ZNSt3__114__split_bufferI4TaskRNS_9allocatorIS1_EEE5clearB7v160006Ev, symObjAddr: 0x59A8, symBinAddr: 0x100005FE8, symSize: 0x28 }
  - { offsetInCU: 0xF9C1, offset: 0xF9C1, size: 0x8, addend: 0x0, symName: __ZNKSt3__114__split_bufferI4TaskRNS_9allocatorIS1_EEE8capacityB7v160006Ev, symObjAddr: 0x59D0, symBinAddr: 0x100006010, symSize: 0x40 }
  - { offsetInCU: 0xF9E6, offset: 0xF9E6, size: 0x8, addend: 0x0, symName: __ZNSt3__114__split_bufferI4TaskRNS_9allocatorIS1_EEE17__destruct_at_endB7v160006EPS1_, symObjAddr: 0x5A10, symBinAddr: 0x100006050, symSize: 0x2C }
  - { offsetInCU: 0xFA19, offset: 0xFA19, size: 0x8, addend: 0x0, symName: __ZNSt3__114__split_bufferI4TaskRNS_9allocatorIS1_EEE17__destruct_at_endB7v160006EPS1_NS_17integral_constantIbLb0EEE, symObjAddr: 0x5A3C, symBinAddr: 0x10000607C, symSize: 0x80 }
  - { offsetInCU: 0xFA58, offset: 0xFA58, size: 0x8, addend: 0x0, symName: __ZNKSt3__114__split_bufferI4TaskRNS_9allocatorIS1_EEE9__end_capB7v160006Ev, symObjAddr: 0x5ABC, symBinAddr: 0x1000060FC, symSize: 0x28 }
  - { offsetInCU: 0xFA7D, offset: 0xFA7D, size: 0x8, addend: 0x0, symName: __ZNKSt3__117__compressed_pairIP4TaskRNS_9allocatorIS1_EEE5firstB7v160006Ev, symObjAddr: 0x5AE4, symBinAddr: 0x100006124, symSize: 0x24 }
  - { offsetInCU: 0xFAA2, offset: 0xFAA2, size: 0x8, addend: 0x0, symName: __ZNSt3__16vectorI4TaskNS_9allocatorIS1_EEE11__make_iterB7v160006EPS1_, symObjAddr: 0x5B08, symBinAddr: 0x100006148, symSize: 0x34 }
  - { offsetInCU: 0xFAD6, offset: 0xFAD6, size: 0x8, addend: 0x0, symName: __ZNSt3__111__wrap_iterIP4TaskEC1B7v160006EPKvS2_, symObjAddr: 0x5B3C, symBinAddr: 0x10000617C, symSize: 0x3C }
  - { offsetInCU: 0xFB1B, offset: 0xFB1B, size: 0x8, addend: 0x0, symName: __ZNSt3__111__wrap_iterIP4TaskEC2B7v160006EPKvS2_, symObjAddr: 0x5B78, symBinAddr: 0x1000061B8, symSize: 0x24 }
  - { offsetInCU: 0xFB60, offset: 0xFB60, size: 0x8, addend: 0x0, symName: __ZNSt3__111__wrap_iterIP4TaskEpLB7v160006El, symObjAddr: 0x5B9C, symBinAddr: 0x1000061DC, symSize: 0x30 }
  - { offsetInCU: 0xFB93, offset: 0xFB93, size: 0x8, addend: 0x0, symName: __ZNKSt3__16vectorI4TaskNS_9allocatorIS1_EEE6cbeginB7v160006Ev, symObjAddr: 0x5C14, symBinAddr: 0x100006254, symSize: 0x2C }
  - { offsetInCU: 0xFBB8, offset: 0xFBB8, size: 0x8, addend: 0x0, symName: __ZNSt3__16vectorI4TaskNS_9allocatorIS1_EEE17__destruct_at_endB7v160006EPS1_, symObjAddr: 0x5C40, symBinAddr: 0x100006280, symSize: 0x60 }
  - { offsetInCU: 0xFBFB, offset: 0xFBFB, size: 0x8, addend: 0x0, symName: __ZNSt3__16vectorI4TaskNS_9allocatorIS1_EEE27__invalidate_iterators_pastB7v160006EPS1_, symObjAddr: 0x5CE0, symBinAddr: 0x100006320, symSize: 0x14 }
  - { offsetInCU: 0xFC31, offset: 0xFC31, size: 0x8, addend: 0x0, symName: __ZNKSt3__111__wrap_iterIPK4TaskE4baseB7v160006Ev, symObjAddr: 0x5CF4, symBinAddr: 0x100006334, symSize: 0x18 }
  - { offsetInCU: 0xFC56, offset: 0xFC56, size: 0x8, addend: 0x0, symName: __ZNKSt3__16vectorI4TaskNS_9allocatorIS1_EEE5beginB7v160006Ev, symObjAddr: 0x5D0C, symBinAddr: 0x10000634C, symSize: 0x30 }
  - { offsetInCU: 0xFC7C, offset: 0xFC7C, size: 0x8, addend: 0x0, symName: __ZNKSt3__16vectorI4TaskNS_9allocatorIS1_EEE11__make_iterB7v160006EPKS1_, symObjAddr: 0x5D3C, symBinAddr: 0x10000637C, symSize: 0x34 }
  - { offsetInCU: 0xFCB0, offset: 0xFCB0, size: 0x8, addend: 0x0, symName: __ZNSt3__111__wrap_iterIPK4TaskEC1B7v160006EPKvS3_, symObjAddr: 0x5D70, symBinAddr: 0x1000063B0, symSize: 0x3C }
  - { offsetInCU: 0xFCF5, offset: 0xFCF5, size: 0x8, addend: 0x0, symName: __ZNSt3__111__wrap_iterIPK4TaskEC2B7v160006EPKvS3_, symObjAddr: 0x5DAC, symBinAddr: 0x1000063EC, symSize: 0x24 }
  - { offsetInCU: 0xFD3A, offset: 0xFD3A, size: 0x8, addend: 0x0, symName: __ZNKSt3__16vectorI4TaskNS_9allocatorIS1_EEE17__annotate_shrinkB7v160006Em, symObjAddr: 0x5DD0, symBinAddr: 0x100006410, symSize: 0xD0 }
  - { offsetInCU: 0xFD91, offset: 0xFD91, size: 0x8, addend: 0x0, symName: __ZNKSt3__111__move_loopINS_17_ClassicAlgPolicyEEclB7v160006IP4TaskS5_S5_EENS_4pairIT_T1_EES7_T0_S8_, symObjAddr: 0x603C, symBinAddr: 0x10000667C, symSize: 0x90 }
  - { offsetInCU: 0xFDFB, offset: 0xFDFB, size: 0x8, addend: 0x0, symName: __ZNSt3__18_IterOpsINS_17_ClassicAlgPolicyEE11__iter_moveB7v160006IRP4TaskEENS_9enable_ifIXsr12is_referenceIDTdeclsr3stdE7declvalIRT_EEEEE5valueEDTclsr3stdE4movedeclsr3stdE7declvalIS9_EEEEE4typeEOS8_, symObjAddr: 0x6190, symBinAddr: 0x1000067D0, symSize: 0x28 }
  - { offsetInCU: 0xFE27, offset: 0xFE27, size: 0x8, addend: 0x0, symName: __ZN4TaskaSEOS_, symObjAddr: 0x61B8, symBinAddr: 0x1000067F8, symSize: 0x5C }
  - { offsetInCU: 0xFE57, offset: 0xFE57, size: 0x8, addend: 0x0, symName: __ZNSt3__18_IterOpsINS_17_ClassicAlgPolicyEE25__validate_iter_referenceB7v160006IRP4TaskEEvv, symObjAddr: 0x6214, symBinAddr: 0x100006854, symSize: 0x4 }
  - { offsetInCU: 0xFE75, offset: 0xFE75, size: 0x8, addend: 0x0, symName: __ZNSt3__112basic_stringIcNS_11char_traitsIcEENS_9allocatorIcEEEaSB7v160006EOS5_, symObjAddr: 0x6218, symBinAddr: 0x100006858, symSize: 0x34 }
  - { offsetInCU: 0xFEA9, offset: 0xFEA9, size: 0x8, addend: 0x0, symName: __ZNSt3__16vectorI4TaskNS_9allocatorIS1_EEEaSB7v160006EOS4_, symObjAddr: 0x624C, symBinAddr: 0x10000688C, symSize: 0x34 }
  - { offsetInCU: 0xFEDE, offset: 0xFEDE, size: 0x8, addend: 0x0, symName: __ZNSt3__112basic_stringIcNS_11char_traitsIcEENS_9allocatorIcEEE13__move_assignB7v160006ERS5_NS_17integral_constantIbLb1EEE, symObjAddr: 0x6280, symBinAddr: 0x1000068C0, symSize: 0xC8 }
  - { offsetInCU: 0xFF1F, offset: 0xFF1F, size: 0x8, addend: 0x0, symName: __ZNSt3__116allocator_traitsINS_9allocatorIcEEE10deallocateB7v160006ERS2_Pcm, symObjAddr: 0x6348, symBinAddr: 0x100006988, symSize: 0x34 }
  - { offsetInCU: 0xFF61, offset: 0xFF61, size: 0x8, addend: 0x0, symName: __ZNSt3__112basic_stringIcNS_11char_traitsIcEENS_9allocatorIcEEE7__allocB7v160006Ev, symObjAddr: 0x637C, symBinAddr: 0x1000069BC, symSize: 0x24 }
  - { offsetInCU: 0xFF86, offset: 0xFF86, size: 0x8, addend: 0x0, symName: __ZNKSt3__112basic_stringIcNS_11char_traitsIcEENS_9allocatorIcEEE14__get_long_capB7v160006Ev, symObjAddr: 0x63A0, symBinAddr: 0x1000069E0, symSize: 0x30 }
  - { offsetInCU: 0xFFAB, offset: 0xFFAB, size: 0x8, addend: 0x0, symName: __ZNSt3__112basic_stringIcNS_11char_traitsIcEENS_9allocatorIcEEE19__move_assign_allocB7v160006ERS5_, symObjAddr: 0x63D0, symBinAddr: 0x100006A10, symSize: 0x2C }
  - { offsetInCU: 0xFFDF, offset: 0xFFDF, size: 0x8, addend: 0x0, symName: __ZNSt3__19allocatorIcE10deallocateB7v160006EPcm, symObjAddr: 0x63FC, symBinAddr: 0x100006A3C, symSize: 0x40 }
  - { offsetInCU: 0x10020, offset: 0x10020, size: 0x8, addend: 0x0, symName: __ZNSt3__117__compressed_pairINS_12basic_stringIcNS_11char_traitsIcEENS_9allocatorIcEEE5__repES5_E6secondB7v160006Ev, symObjAddr: 0x643C, symBinAddr: 0x100006A7C, symSize: 0x24 }
  - { offsetInCU: 0x10045, offset: 0x10045, size: 0x8, addend: 0x0, symName: __ZNSt3__122__compressed_pair_elemINS_9allocatorIcEELi1ELb1EE5__getB7v160006Ev, symObjAddr: 0x6460, symBinAddr: 0x100006AA0, symSize: 0x14 }
  - { offsetInCU: 0x1006A, offset: 0x1006A, size: 0x8, addend: 0x0, symName: __ZNSt3__112basic_stringIcNS_11char_traitsIcEENS_9allocatorIcEEE19__move_assign_allocB7v160006ERS5_NS_17integral_constantIbLb1EEE, symObjAddr: 0x6474, symBinAddr: 0x100006AB4, symSize: 0x38 }
  - { offsetInCU: 0x100AA, offset: 0x100AA, size: 0x8, addend: 0x0, symName: __ZNSt3__16vectorI4TaskNS_9allocatorIS1_EEE13__move_assignERS4_NS_17integral_constantIbLb1EEE, symObjAddr: 0x64AC, symBinAddr: 0x100006AEC, symSize: 0xA4 }
  - { offsetInCU: 0x100EB, offset: 0x100EB, size: 0x8, addend: 0x0, symName: __ZNSt3__16vectorI4TaskNS_9allocatorIS1_EEE13__vdeallocateEv, symObjAddr: 0x6550, symBinAddr: 0x100006B90, symSize: 0x8C }
  - { offsetInCU: 0x10111, offset: 0x10111, size: 0x8, addend: 0x0, symName: __ZNSt3__16vectorI4TaskNS_9allocatorIS1_EEE19__move_assign_allocB7v160006ERS4_, symObjAddr: 0x65DC, symBinAddr: 0x100006C1C, symSize: 0x2C }
  - { offsetInCU: 0x10145, offset: 0x10145, size: 0x8, addend: 0x0, symName: __ZNSt3__16vectorI4TaskNS_9allocatorIS1_EEE5clearB7v160006Ev, symObjAddr: 0x6608, symBinAddr: 0x100006C48, symSize: 0x4C }
  - { offsetInCU: 0x10179, offset: 0x10179, size: 0x8, addend: 0x0, symName: __ZNSt3__16vectorI4TaskNS_9allocatorIS1_EEE19__move_assign_allocB7v160006ERS4_NS_17integral_constantIbLb1EEE, symObjAddr: 0x6654, symBinAddr: 0x100006C94, symSize: 0x38 }
  - { offsetInCU: 0x101B9, offset: 0x101B9, size: 0x8, addend: 0x0, symName: __ZNSt3__118__unwrap_iter_implIP4TaskLb1EE8__unwrapB7v160006ES2_, symObjAddr: 0x668C, symBinAddr: 0x100006CCC, symSize: 0x24 }
  - { offsetInCU: 0x101E1, offset: 0x101E1, size: 0x8, addend: 0x0, symName: __ZNSt3__14pairIP4TaskS2_EC1B7v160006IS2_S2_LPv0EEEOT_OT0_, symObjAddr: 0x66B0, symBinAddr: 0x100006CF0, symSize: 0x3C }
  - { offsetInCU: 0x1023E, offset: 0x1023E, size: 0x8, addend: 0x0, symName: __ZNSt3__14pairIP4TaskS2_EC2B7v160006IS2_S2_LPv0EEEOT_OT0_, symObjAddr: 0x66EC, symBinAddr: 0x100006D2C, symSize: 0x34 }
  - { offsetInCU: 0x1029B, offset: 0x1029B, size: 0x8, addend: 0x0, symName: __ZNSt3__118__unwrap_iter_implIP4TaskLb1EE8__rewrapB7v160006ES2_S2_, symObjAddr: 0x6720, symBinAddr: 0x100006D60, symSize: 0x58 }
  - { offsetInCU: 0x102CC, offset: 0x102CC, size: 0x8, addend: 0x0, symName: __ZNSt3__111__wrap_iterIPK4TaskEC2B7v160006IPS1_EERKNS0_IT_EEPNS_9enable_ifIXsr14is_convertibleIS7_S3_EE5valueEvE4typeE, symObjAddr: 0x6778, symBinAddr: 0x100006DB8, symSize: 0x40 }
  - { offsetInCU: 0x10317, offset: 0x10317, size: 0x8, addend: 0x0, symName: __ZNKSt3__111__wrap_iterIP4TaskE4baseB7v160006Ev, symObjAddr: 0x67B8, symBinAddr: 0x100006DF8, symSize: 0x18 }
  - { offsetInCU: 0x1033C, offset: 0x1033C, size: 0x8, addend: 0x0, symName: __ZNSt3__16vectorI4TaskNS_9allocatorIS1_EEEC2B7v160006Ev, symObjAddr: 0x67D0, symBinAddr: 0x100006E10, symSize: 0x54 }
  - { offsetInCU: 0x10365, offset: 0x10365, size: 0x8, addend: 0x0, symName: __ZNSt3__117__compressed_pairIP4TaskNS_9allocatorIS1_EEEC1B7v160006IDnNS_18__default_init_tagEEEOT_OT0_, symObjAddr: 0x6824, symBinAddr: 0x100006E64, symSize: 0x3C }
  - { offsetInCU: 0x103BC, offset: 0x103BC, size: 0x8, addend: 0x0, symName: __ZNSt3__117__compressed_pairIP4TaskNS_9allocatorIS1_EEEC2B7v160006IDnNS_18__default_init_tagEEEOT_OT0_, symObjAddr: 0x6860, symBinAddr: 0x100006EA0, symSize: 0x40 }
  - { offsetInCU: 0x10413, offset: 0x10413, size: 0x8, addend: 0x0, symName: __ZNSt3__122__compressed_pair_elemINS_9allocatorI4TaskEELi1ELb1EEC2B7v160006ENS_18__default_init_tagE, symObjAddr: 0x68A0, symBinAddr: 0x100006EE0, symSize: 0x2C }
  - { offsetInCU: 0x10447, offset: 0x10447, size: 0x8, addend: 0x0, symName: __ZNSt3__19allocatorI4TaskEC2B7v160006Ev, symObjAddr: 0x68CC, symBinAddr: 0x100006F0C, symSize: 0x2C }
  - { offsetInCU: 0x10470, offset: 0x10470, size: 0x8, addend: 0x0, symName: __ZNSt3__116__non_trivial_ifILb1ENS_9allocatorI4TaskEEEC2B7v160006Ev, symObjAddr: 0x68F8, symBinAddr: 0x100006F38, symSize: 0x14 }
  - { offsetInCU: 0x10499, offset: 0x10499, size: 0x8, addend: 0x0, symName: __ZNSt3__16vectorI4TaskNS_9allocatorIS1_EEE22__construct_one_at_endB7v160006IJS1_EEEvDpOT_, symObjAddr: 0x690C, symBinAddr: 0x100006F4C, symSize: 0x90 }
  - { offsetInCU: 0x104E7, offset: 0x104E7, size: 0x8, addend: 0x0, symName: __ZNSt3__16vectorI4TaskNS_9allocatorIS1_EEE21__push_back_slow_pathIS1_EEvOT_, symObjAddr: 0x699C, symBinAddr: 0x100006FDC, symSize: 0xD8 }
...
